
Single Step:

0000:  7B        SEQ     (1 bytes)
0001:  71        DIS     (1 bytes)

Halt Address = 0001h (1)
D = 00h (0, 0)
DF/Carry = 0 (false)
RP = R0 (0) = 0001h (1)
RX = R0 (0) = 0001h (1)
Q Flag = 1 (true)
R0 = 0001h (1, 1)          R8 = 0000h (0, 0)
R1 = 0000h (0, 0)          R9 = 0000h (0, 0)
R2 = 0000h (0, 0)          RA = 0000h (0, 0)
R3 = 0000h (0, 0)          RB = 0000h (0, 0)
R4 = 0000h (0, 0)          RC = 0000h (0, 0)
R5 = 0000h (0, 0)          RD = 0000h (0, 0)
R6 = 0000h (0, 0)          RE = 0000h (0, 0)
R7 = 0000h (0, 0)          RF = 0000h (0, 0)

Single Step:

0001:  71        DIS     (1 bytes)
0003:  7B        SEQ     (1 bytes)

Halt Address = 0003h (3)
D = 00h (0, 0)
DF/Carry = 0 (false)
RP = R0 (0) = 0003h (3)
RX = R0 (0) = 0003h (3)
Q Flag = 1 (true)
R0 = 0003h (3, 3)          R8 = 0000h (0, 0)
R1 = 0000h (0, 0)          R9 = 0000h (0, 0)
R2 = 0000h (0, 0)          RA = 0000h (0, 0)
R3 = 0000h (0, 0)          RB = 0000h (0, 0)
R4 = 0000h (0, 0)          RC = 0000h (0, 0)
R5 = 0000h (0, 0)          RD = 0000h (0, 0)
R6 = 0000h (0, 0)          RE = 0000h (0, 0)
R7 = 0000h (0, 0)          RF = 0000h (0, 0)

Single Step:

0003:  7B        SEQ     (1 bytes)
0004:  7B        SEQ     (1 bytes)

Halt Address = 0004h (4)
D = 00h (0, 0)
DF/Carry = 0 (false)
RP = R0 (0) = 0004h (4)
RX = R0 (0) = 0004h (4)
Q Flag = 1 (true)
R0 = 0004h (4, 4)          R8 = 0000h (0, 0)
R1 = 0000h (0, 0)          R9 = 0000h (0, 0)
R2 = 0000h (0, 0)          RA = 0000h (0, 0)
R3 = 0000h (0, 0)          RB = 0000h (0, 0)
R4 = 0000h (0, 0)          RC = 0000h (0, 0)
R5 = 0000h (0, 0)          RD = 0000h (0, 0)
R6 = 0000h (0, 0)          RE = 0000h (0, 0)
R7 = 0000h (0, 0)          RF = 0000h (0, 0)

Single Step:

0004:  7B        SEQ     (1 bytes)
0005:  F8 0E     LDI 0E     (2 bytes)

Halt Address = 0005h (5)
D = 00h (0, 0)
DF/Carry = 0 (false)
RP = R0 (0) = 0005h (5)
RX = R0 (0) = 0005h (5)
Q Flag = 1 (true)
R0 = 0005h (5, 5)          R8 = 0000h (0, 0)
R1 = 0000h (0, 0)          R9 = 0000h (0, 0)
R2 = 0000h (0, 0)          RA = 0000h (0, 0)
R3 = 0000h (0, 0)          RB = 0000h (0, 0)
R4 = 0000h (0, 0)          RC = 0000h (0, 0)
R5 = 0000h (0, 0)          RD = 0000h (0, 0)
R6 = 0000h (0, 0)          RE = 0000h (0, 0)
R7 = 0000h (0, 0)          RF = 0000h (0, 0)

Single Step:

0005:  F8 0E     LDI 0E     (2 bytes)
0007:  B3        PHI R3     (1 bytes)

Halt Address = 0007h (7)
D = 0Eh (14, 14)
DF/Carry = 0 (false)
RP = R0 (0) = 0007h (7)
RX = R0 (0) = 0007h (7)
Q Flag = 1 (true)
R0 = 0007h (7, 7)          R8 = 0000h (0, 0)
R1 = 0000h (0, 0)          R9 = 0000h (0, 0)
R2 = 0000h (0, 0)          RA = 0000h (0, 0)
R3 = 0000h (0, 0)          RB = 0000h (0, 0)
R4 = 0000h (0, 0)          RC = 0000h (0, 0)
R5 = 0000h (0, 0)          RD = 0000h (0, 0)
R6 = 0000h (0, 0)          RE = 0000h (0, 0)
R7 = 0000h (0, 0)          RF = 0000h (0, 0)

Single Step:

0007:  B3        PHI R3     (1 bytes)
0008:  F8 66     LDI 66     (2 bytes)

Halt Address = 0008h (8)
D = 0Eh (14, 14)
DF/Carry = 0 (false)
RP = R0 (0) = 0008h (8)
RX = R0 (0) = 0008h (8)
Q Flag = 1 (true)
R0 = 0008h (8, 8)          R8 = 0000h (0, 0)
R1 = 0000h (0, 0)          R9 = 0000h (0, 0)
R2 = 0000h (0, 0)          RA = 0000h (0, 0)
R3 = 0E00h (3584, 3584)          RB = 0000h (0, 0)
R4 = 0000h (0, 0)          RC = 0000h (0, 0)
R5 = 0000h (0, 0)          RD = 0000h (0, 0)
R6 = 0000h (0, 0)          RE = 0000h (0, 0)
R7 = 0000h (0, 0)          RF = 0000h (0, 0)

Single Step:

0008:  F8 66     LDI 66     (2 bytes)
000A:  A3        PLO R3     (1 bytes)

Halt Address = 000Ah (10)
D = 66h (102, 102)
DF/Carry = 0 (false)
RP = R0 (0) = 000Ah (10)
RX = R0 (0) = 000Ah (10)
Q Flag = 1 (true)
R0 = 000Ah (10, 10)          R8 = 0000h (0, 0)
R1 = 0000h (0, 0)          R9 = 0000h (0, 0)
R2 = 0000h (0, 0)          RA = 0000h (0, 0)
R3 = 0E00h (3584, 3584)          RB = 0000h (0, 0)
R4 = 0000h (0, 0)          RC = 0000h (0, 0)
R5 = 0000h (0, 0)          RD = 0000h (0, 0)
R6 = 0000h (0, 0)          RE = 0000h (0, 0)
R7 = 0000h (0, 0)          RF = 0000h (0, 0)

Single Step:

000A:  A3        PLO R3     (1 bytes)
000B:  F8 00     LDI 00     (2 bytes)

Halt Address = 000Bh (11)
D = 66h (102, 102)
DF/Carry = 0 (false)
RP = R0 (0) = 000Bh (11)
RX = R0 (0) = 000Bh (11)
Q Flag = 1 (true)
R0 = 000Bh (11, 11)          R8 = 0000h (0, 0)
R1 = 0000h (0, 0)          R9 = 0000h (0, 0)
R2 = 0000h (0, 0)          RA = 0000h (0, 0)
R3 = 0E66h (3686, 3686)          RB = 0000h (0, 0)
R4 = 0000h (0, 0)          RC = 0000h (0, 0)
R5 = 0000h (0, 0)          RD = 0000h (0, 0)
R6 = 0000h (0, 0)          RE = 0000h (0, 0)
R7 = 0000h (0, 0)          RF = 0000h (0, 0)

Single Step:

000B:  F8 00     LDI 00     (2 bytes)
000D:  B4        PHI R4     (1 bytes)

Halt Address = 000Dh (13)
D = 00h (0, 0)
DF/Carry = 0 (false)
RP = R0 (0) = 000Dh (13)
RX = R0 (0) = 000Dh (13)
Q Flag = 1 (true)
R0 = 000Dh (13, 13)          R8 = 0000h (0, 0)
R1 = 0000h (0, 0)          R9 = 0000h (0, 0)
R2 = 0000h (0, 0)          RA = 0000h (0, 0)
R3 = 0E66h (3686, 3686)          RB = 0000h (0, 0)
R4 = 0000h (0, 0)          RC = 0000h (0, 0)
R5 = 0000h (0, 0)          RD = 0000h (0, 0)
R6 = 0000h (0, 0)          RE = 0000h (0, 0)
R7 = 0000h (0, 0)          RF = 0000h (0, 0)

Single Step:

000D:  B4        PHI R4     (1 bytes)
000E:  B5        PHI R5     (1 bytes)

Halt Address = 000Eh (14)
D = 00h (0, 0)
DF/Carry = 0 (false)
RP = R0 (0) = 000Eh (14)
RX = R0 (0) = 000Eh (14)
Q Flag = 1 (true)
R0 = 000Eh (14, 14)          R8 = 0000h (0, 0)
R1 = 0000h (0, 0)          R9 = 0000h (0, 0)
R2 = 0000h (0, 0)          RA = 0000h (0, 0)
R3 = 0E66h (3686, 3686)          RB = 0000h (0, 0)
R4 = 0000h (0, 0)          RC = 0000h (0, 0)
R5 = 0000h (0, 0)          RD = 0000h (0, 0)
R6 = 0000h (0, 0)          RE = 0000h (0, 0)
R7 = 0000h (0, 0)          RF = 0000h (0, 0)


Single Step:

000E:  B5        PHI R5     (1 bytes)
000F:  F8 2A     LDI 2A     (2 bytes)

Halt Address = 000Fh (15)
D = 00h (0, 0)
DF/Carry = 0 (false)
RP = R0 (0) = 000Fh (15)
RX = R0 (0) = 000Fh (15)
Q Flag = 1 (true)
R0 = 000Fh (15, 15)          R8 = 0000h (0, 0)
R1 = 0000h (0, 0)          R9 = 0000h (0, 0)
R2 = 0000h (0, 0)          RA = 0000h (0, 0)
R3 = 0E66h (3686, 3686)          RB = 0000h (0, 0)
R4 = 0000h (0, 0)          RC = 0000h (0, 0)
R5 = 0000h (0, 0)          RD = 0000h (0, 0)
R6 = 0000h (0, 0)          RE = 0000h (0, 0)
R7 = 0000h (0, 0)          RF = 0000h (0, 0)

Single Step:

000F:  F8 2A     LDI 2A     (2 bytes)
0011:  A4        PLO R4     (1 bytes)

Halt Address = 0011h (17)
D = 2Ah (42, 42)
DF/Carry = 0 (false)
RP = R0 (0) = 0011h (17)
RX = R0 (0) = 0011h (17)
Q Flag = 1 (true)
R0 = 0011h (17, 17)          R8 = 0000h (0, 0)
R1 = 0000h (0, 0)          R9 = 0000h (0, 0)
R2 = 0000h (0, 0)          RA = 0000h (0, 0)
R3 = 0E66h (3686, 3686)          RB = 0000h (0, 0)
R4 = 0000h (0, 0)          RC = 0000h (0, 0)
R5 = 0000h (0, 0)          RD = 0000h (0, 0)
R6 = 0000h (0, 0)          RE = 0000h (0, 0)
R7 = 0000h (0, 0)          RF = 0000h (0, 0)

Single Step:

0011:  A4        PLO R4     (1 bytes)
0012:  F8 48     LDI 48     (2 bytes)

Halt Address = 0012h (18)
D = 2Ah (42, 42)
DF/Carry = 0 (false)
RP = R0 (0) = 0012h (18)
RX = R0 (0) = 0012h (18)
Q Flag = 1 (true)
R0 = 0012h (18, 18)          R8 = 0000h (0, 0)
R1 = 0000h (0, 0)          R9 = 0000h (0, 0)
R2 = 0000h (0, 0)          RA = 0000h (0, 0)
R3 = 0E66h (3686, 3686)          RB = 0000h (0, 0)
R4 = 002Ah (42, 42)          RC = 0000h (0, 0)
R5 = 0000h (0, 0)          RD = 0000h (0, 0)
R6 = 0000h (0, 0)          RE = 0000h (0, 0)
R7 = 0000h (0, 0)          RF = 0000h (0, 0)

Single Step:

0012:  F8 48     LDI 48     (2 bytes)
0014:  A5        PLO R5     (1 bytes)

Halt Address = 0014h (20)
D = 48h (72, 72)
DF/Carry = 0 (false)
RP = R0 (0) = 0014h (20)
RX = R0 (0) = 0014h (20)
Q Flag = 1 (true)
R0 = 0014h (20, 20)          R8 = 0000h (0, 0)
R1 = 0000h (0, 0)          R9 = 0000h (0, 0)
R2 = 0000h (0, 0)          RA = 0000h (0, 0)
R3 = 0E66h (3686, 3686)          RB = 0000h (0, 0)
R4 = 002Ah (42, 42)          RC = 0000h (0, 0)
R5 = 0000h (0, 0)          RD = 0000h (0, 0)
R6 = 0000h (0, 0)          RE = 0000h (0, 0)
R7 = 0000h (0, 0)          RF = 0000h (0, 0)

Single Step:

0014:  A5        PLO R5     (1 bytes)
0015:  F8 01     LDI 01     (2 bytes)

Halt Address = 0015h (21)
D = 48h (72, 72)
DF/Carry = 0 (false)
RP = R0 (0) = 0015h (21)
RX = R0 (0) = 0015h (21)
Q Flag = 1 (true)
R0 = 0015h (21, 21)          R8 = 0000h (0, 0)
R1 = 0000h (0, 0)          R9 = 0000h (0, 0)
R2 = 0000h (0, 0)          RA = 0000h (0, 0)
R3 = 0E66h (3686, 3686)          RB = 0000h (0, 0)
R4 = 002Ah (42, 42)          RC = 0000h (0, 0)
R5 = 0048h (72, 72)          RD = 0000h (0, 0)
R6 = 0000h (0, 0)          RE = 0000h (0, 0)
R7 = 0000h (0, 0)          RF = 0000h (0, 0)

Single Step:

0015:  F8 01     LDI 01     (2 bytes)
0017:  B7        PHI R7     (1 bytes)

Halt Address = 0017h (23)
D = 01h (1, 1)
DF/Carry = 0 (false)
RP = R0 (0) = 0017h (23)
RX = R0 (0) = 0017h (23)
Q Flag = 1 (true)
R0 = 0017h (23, 23)          R8 = 0000h (0, 0)
R1 = 0000h (0, 0)          R9 = 0000h (0, 0)
R2 = 0000h (0, 0)          RA = 0000h (0, 0)
R3 = 0E66h (3686, 3686)          RB = 0000h (0, 0)
R4 = 002Ah (42, 42)          RC = 0000h (0, 0)
R5 = 0048h (72, 72)          RD = 0000h (0, 0)
R6 = 0000h (0, 0)          RE = 0000h (0, 0)
R7 = 0000h (0, 0)          RF = 0000h (0, 0)

Single Step:

0017:  B7        PHI R7     (1 bytes)
0018:  F8 19     LDI 19     (2 bytes)

Halt Address = 0018h (24)
D = 01h (1, 1)
DF/Carry = 0 (false)
RP = R0 (0) = 0018h (24)
RX = R0 (0) = 0018h (24)
Q Flag = 1 (true)
R0 = 0018h (24, 24)          R8 = 0000h (0, 0)
R1 = 0000h (0, 0)          R9 = 0000h (0, 0)
R2 = 0000h (0, 0)          RA = 0000h (0, 0)
R3 = 0E66h (3686, 3686)          RB = 0000h (0, 0)
R4 = 002Ah (42, 42)          RC = 0000h (0, 0)
R5 = 0048h (72, 72)          RD = 0000h (0, 0)
R6 = 0000h (0, 0)          RE = 0000h (0, 0)
R7 = 0100h (256, 256)          RF = 0000h (0, 0)

Single Step:

0018:  F8 19     LDI 19     (2 bytes)
001A:  A7        PLO R7     (1 bytes)

Halt Address = 001Ah (26)
D = 19h (25, 25)
DF/Carry = 0 (false)
RP = R0 (0) = 001Ah (26)
RX = R0 (0) = 001Ah (26)
Q Flag = 1 (true)
R0 = 001Ah (26, 26)          R8 = 0000h (0, 0)
R1 = 0000h (0, 0)          R9 = 0000h (0, 0)
R2 = 0000h (0, 0)          RA = 0000h (0, 0)
R3 = 0E66h (3686, 3686)          RB = 0000h (0, 0)
R4 = 002Ah (42, 42)          RC = 0000h (0, 0)
R5 = 0048h (72, 72)          RD = 0000h (0, 0)
R6 = 0000h (0, 0)          RE = 0000h (0, 0)
R7 = 0100h (256, 256)          RF = 0000h (0, 0)

Single Step:

001A:  A7        PLO R7     (1 bytes)
001B:  F8 6F     LDI 6F     (2 bytes)

Halt Address = 001Bh (27)
D = 19h (25, 25)
DF/Carry = 0 (false)
RP = R0 (0) = 001Bh (27)
RX = R0 (0) = 001Bh (27)
Q Flag = 1 (true)
R0 = 001Bh (27, 27)          R8 = 0000h (0, 0)
R1 = 0000h (0, 0)          R9 = 0000h (0, 0)
R2 = 0000h (0, 0)          RA = 0000h (0, 0)
R3 = 0E66h (3686, 3686)          RB = 0000h (0, 0)
R4 = 002Ah (42, 42)          RC = 0000h (0, 0)
R5 = 0048h (72, 72)          RD = 0000h (0, 0)
R6 = 0000h (0, 0)          RE = 0000h (0, 0)
R7 = 0119h (281, 281)          RF = 0000h (0, 0)

Single Step:

001B:  F8 6F     LDI 6F     (2 bytes)
001D:  A2        PLO R2     (1 bytes)

Halt Address = 001Dh (29)
D = 6Fh (111, 111)
DF/Carry = 0 (false)
RP = R0 (0) = 001Dh (29)
RX = R0 (0) = 001Dh (29)
Q Flag = 1 (true)
R0 = 001Dh (29, 29)          R8 = 0000h (0, 0)
R1 = 0000h (0, 0)          R9 = 0000h (0, 0)
R2 = 0000h (0, 0)          RA = 0000h (0, 0)
R3 = 0E66h (3686, 3686)          RB = 0000h (0, 0)
R4 = 002Ah (42, 42)          RC = 0000h (0, 0)
R5 = 0048h (72, 72)          RD = 0000h (0, 0)
R6 = 0000h (0, 0)          RE = 0000h (0, 0)
R7 = 0119h (281, 281)          RF = 0000h (0, 0)


Single Step:

001D:  A2        PLO R2     (1 bytes)
001E:  F8 77     LDI 77     (2 bytes)

Halt Address = 001Eh (30)
D = 6Fh (111, 111)
DF/Carry = 0 (false)
RP = R0 (0) = 001Eh (30)
RX = R0 (0) = 001Eh (30)
Q Flag = 1 (true)
R0 = 001Eh (30, 30)          R8 = 0000h (0, 0)
R1 = 0000h (0, 0)          R9 = 0000h (0, 0)
R2 = 006Fh (111, 111)          RA = 0000h (0, 0)
R3 = 0E66h (3686, 3686)          RB = 0000h (0, 0)
R4 = 002Ah (42, 42)          RC = 0000h (0, 0)
R5 = 0048h (72, 72)          RD = 0000h (0, 0)
R6 = 0000h (0, 0)          RE = 0000h (0, 0)
R7 = 0119h (281, 281)          RF = 0000h (0, 0)

Single Step:

001E:  F8 77     LDI 77     (2 bytes)
0020:  A8        PLO R8     (1 bytes)

Halt Address = 0020h (32)
D = 77h (119, 119)
DF/Carry = 0 (false)
RP = R0 (0) = 0020h (32)
RX = R0 (0) = 0020h (32)
Q Flag = 1 (true)
R0 = 0020h (32, 32)          R8 = 0000h (0, 0)
R1 = 0000h (0, 0)          R9 = 0000h (0, 0)
R2 = 006Fh (111, 111)          RA = 0000h (0, 0)
R3 = 0E66h (3686, 3686)          RB = 0000h (0, 0)
R4 = 002Ah (42, 42)          RC = 0000h (0, 0)
R5 = 0048h (72, 72)          RD = 0000h (0, 0)
R6 = 0000h (0, 0)          RE = 0000h (0, 0)
R7 = 0119h (281, 281)          RF = 0000h (0, 0)

Single Step:

0020:  A8        PLO R8     (1 bytes)
0021:  F8 40     LDI 40     (2 bytes)

Halt Address = 0021h (33)
D = 77h (119, 119)
DF/Carry = 0 (false)
RP = R0 (0) = 0021h (33)
RX = R0 (0) = 0021h (33)
Q Flag = 1 (true)
R0 = 0021h (33, 33)          R8 = 0077h (119, 119)
R1 = 0000h (0, 0)          R9 = 0000h (0, 0)
R2 = 006Fh (111, 111)          RA = 0000h (0, 0)
R3 = 0E66h (3686, 3686)          RB = 0000h (0, 0)
R4 = 002Ah (42, 42)          RC = 0000h (0, 0)
R5 = 0048h (72, 72)          RD = 0000h (0, 0)
R6 = 0000h (0, 0)          RE = 0000h (0, 0)
R7 = 0119h (281, 281)          RF = 0000h (0, 0)

Single Step:

0021:  F8 40     LDI 40     (2 bytes)
0023:  B2        PHI R2     (1 bytes)

Halt Address = 0023h (35)
D = 40h (64, 64)
DF/Carry = 0 (false)
RP = R0 (0) = 0023h (35)
RX = R0 (0) = 0023h (35)
Q Flag = 1 (true)
R0 = 0023h (35, 35)          R8 = 0077h (119, 119)
R1 = 0000h (0, 0)          R9 = 0000h (0, 0)
R2 = 006Fh (111, 111)          RA = 0000h (0, 0)
R3 = 0E66h (3686, 3686)          RB = 0000h (0, 0)
R4 = 002Ah (42, 42)          RC = 0000h (0, 0)
R5 = 0048h (72, 72)          RD = 0000h (0, 0)
R6 = 0000h (0, 0)          RE = 0000h (0, 0)
R7 = 0119h (281, 281)          RF = 0000h (0, 0)

Single Step:

0023:  B2        PHI R2     (1 bytes)
0024:  B8        PHI R8     (1 bytes)

Halt Address = 0024h (36)
D = 40h (64, 64)
DF/Carry = 0 (false)
RP = R0 (0) = 0024h (36)
RX = R0 (0) = 0024h (36)
Q Flag = 1 (true)
R0 = 0024h (36, 36)          R8 = 0077h (119, 119)
R1 = 0000h (0, 0)          R9 = 0000h (0, 0)
R2 = 406Fh (16495, 16495)          RA = 0000h (0, 0)
R3 = 0E66h (3686, 3686)          RB = 0000h (0, 0)
R4 = 002Ah (42, 42)          RC = 0000h (0, 0)
R5 = 0048h (72, 72)          RD = 0000h (0, 0)
R6 = 0000h (0, 0)          RE = 0000h (0, 0)
R7 = 0119h (281, 281)          RF = 0000h (0, 0)

Single Step:

0024:  B8        PHI R8     (1 bytes)
0025:  B9        PHI R9     (1 bytes)

Halt Address = 0025h (37)
D = 40h (64, 64)
DF/Carry = 0 (false)
RP = R0 (0) = 0025h (37)
RX = R0 (0) = 0025h (37)
Q Flag = 1 (true)
R0 = 0025h (37, 37)          R8 = 4077h (16503, 16503)
R1 = 0000h (0, 0)          R9 = 0000h (0, 0)
R2 = 406Fh (16495, 16495)          RA = 0000h (0, 0)
R3 = 0E66h (3686, 3686)          RB = 0000h (0, 0)
R4 = 002Ah (42, 42)          RC = 0000h (0, 0)
R5 = 0048h (72, 72)          RD = 0000h (0, 0)
R6 = 0000h (0, 0)          RE = 0000h (0, 0)
R7 = 0119h (281, 281)          RF = 0000h (0, 0)

Single Step:

0025:  B9        PHI R9     (1 bytes)
0026:  BA        PHI RA     (1 bytes)

Halt Address = 0026h (38)
D = 40h (64, 64)
DF/Carry = 0 (false)
RP = R0 (0) = 0026h (38)
RX = R0 (0) = 0026h (38)
Q Flag = 1 (true)
R0 = 0026h (38, 38)          R8 = 4077h (16503, 16503)
R1 = 0000h (0, 0)          R9 = 4000h (16384, 16384)
R2 = 406Fh (16495, 16495)          RA = 0000h (0, 0)
R3 = 0E66h (3686, 3686)          RB = 0000h (0, 0)
R4 = 002Ah (42, 42)          RC = 0000h (0, 0)
R5 = 0048h (72, 72)          RD = 0000h (0, 0)
R6 = 0000h (0, 0)          RE = 0000h (0, 0)
R7 = 0119h (281, 281)          RF = 0000h (0, 0)

Single Step:

0026:  BA        PHI RA     (1 bytes)
0027:  BD        PHI RD     (1 bytes)

Halt Address = 0027h (39)
D = 40h (64, 64)
DF/Carry = 0 (false)
RP = R0 (0) = 0027h (39)
RX = R0 (0) = 0027h (39)
Q Flag = 1 (true)
R0 = 0027h (39, 39)          R8 = 4077h (16503, 16503)
R1 = 0000h (0, 0)          R9 = 4000h (16384, 16384)
R2 = 406Fh (16495, 16495)          RA = 4000h (16384, 16384)
R3 = 0E66h (3686, 3686)          RB = 0000h (0, 0)
R4 = 002Ah (42, 42)          RC = 0000h (0, 0)
R5 = 0048h (72, 72)          RD = 0000h (0, 0)
R6 = 0000h (0, 0)          RE = 0000h (0, 0)
R7 = 0119h (281, 281)          RF = 0000h (0, 0)

Single Step:

0027:  BD        PHI RD     (1 bytes)
0028:  D3        SEP R3     (1 bytes)

Halt Address = 0028h (40)
D = 40h (64, 64)
DF/Carry = 0 (false)
RP = R0 (0) = 0028h (40)
RX = R0 (0) = 0028h (40)
Q Flag = 1 (true)
R0 = 0028h (40, 40)          R8 = 4077h (16503, 16503)
R1 = 0000h (0, 0)          R9 = 4000h (16384, 16384)
R2 = 406Fh (16495, 16495)          RA = 4000h (16384, 16384)
R3 = 0E66h (3686, 3686)          RB = 0000h (0, 0)
R4 = 002Ah (42, 42)          RC = 0000h (0, 0)
R5 = 0048h (72, 72)          RD = 4000h (16384, 16384)
R6 = 0000h (0, 0)          RE = 0000h (0, 0)
R7 = 0119h (281, 281)          RF = 0000h (0, 0)

Single Step:

0028:  D3        SEP R3     (1 bytes)
0E66:  D7        SEP R7     (1 bytes)

Halt Address = 0E66h (3686)
D = 40h (64, 64)
DF/Carry = 0 (false)
RP = R3 (3) = 0E66h (3686)
RX = R0 (0) = 0029h (41)
Q Flag = 1 (true)
R0 = 0029h (41, 41)          R8 = 4077h (16503, 16503)
R1 = 0000h (0, 0)          R9 = 4000h (16384, 16384)
R2 = 406Fh (16495, 16495)          RA = 4000h (16384, 16384)
R3 = 0E66h (3686, 3686)          RB = 0000h (0, 0)
R4 = 002Ah (42, 42)          RC = 0000h (0, 0)
R5 = 0048h (72, 72)          RD = 4000h (16384, 16384)
R6 = 0000h (0, 0)          RE = 0000h (0, 0)
R7 = 0119h (281, 281)          RF = 0000h (0, 0)


Single Step:

0E66:  D7        SEP R7     (1 bytes)
0119:  E8        SEX R8     (1 bytes)

Halt Address = 0119h (281)
D = 40h (64, 64)
DF/Carry = 0 (false)
RP = R7 (7) = 0119h (281)
RX = R0 (0) = 0029h (41)
Q Flag = 1 (true)
R0 = 0029h (41, 41)          R8 = 4077h (16503, 16503)
R1 = 0000h (0, 0)          R9 = 4000h (16384, 16384)
R2 = 406Fh (16495, 16495)          RA = 4000h (16384, 16384)
R3 = 0E67h (3687, 3687)          RB = 0000h (0, 0)
R4 = 002Ah (42, 42)          RC = 0000h (0, 0)
R5 = 0048h (72, 72)          RD = 4000h (16384, 16384)
R6 = 0000h (0, 0)          RE = 0000h (0, 0)
R7 = 0119h (281, 281)          RF = 0000h (0, 0)

Single Step:

0119:  E8        SEX R8     (1 bytes)
011A:  73        STXD     (1 bytes)

Halt Address = 011Ah (282)
D = 40h (64, 64)
DF/Carry = 0 (false)
RP = R7 (7) = 011Ah (282)
RX = R8 (8) = 4077h (16503)
Q Flag = 1 (true)
R0 = 0029h (41, 41)          R8 = 4077h (16503, 16503)
R1 = 0000h (0, 0)          R9 = 4000h (16384, 16384)
R2 = 406Fh (16495, 16495)          RA = 4000h (16384, 16384)
R3 = 0E67h (3687, 3687)          RB = 0000h (0, 0)
R4 = 002Ah (42, 42)          RC = 0000h (0, 0)
R5 = 0048h (72, 72)          RD = 4000h (16384, 16384)
R6 = 0000h (0, 0)          RE = 0000h (0, 0)
R7 = 011Ah (282, 282)          RF = 0000h (0, 0)

Single Step:

011A:  73        STXD     (1 bytes)
011B:  76        SHRC     (1 bytes)

Halt Address = 011Bh (283)
D = 40h (64, 64)
DF/Carry = 0 (false)
RP = R7 (7) = 011Bh (283)
RX = R8 (8) = 4076h (16502)
Q Flag = 1 (true)
R0 = 0029h (41, 41)          R8 = 4076h (16502, 16502)
R1 = 0000h (0, 0)          R9 = 4000h (16384, 16384)
R2 = 406Fh (16495, 16495)          RA = 4000h (16384, 16384)
R3 = 0E67h (3687, 3687)          RB = 0000h (0, 0)
R4 = 002Ah (42, 42)          RC = 0000h (0, 0)
R5 = 0048h (72, 72)          RD = 4000h (16384, 16384)
R6 = 0000h (0, 0)          RE = 0000h (0, 0)
R7 = 011Bh (283, 283)          RF = 0000h (0, 0)

Single Step:

011B:  76        SHRC     (1 bytes)
011C:  73        STXD     (1 bytes)

Halt Address = 011Ch (284)
D = 20h (32, 32)
DF/Carry = 0 (false)
RP = R7 (7) = 011Ch (284)
RX = R8 (8) = 4076h (16502)
Q Flag = 1 (true)
R0 = 0029h (41, 41)          R8 = 4076h (16502, 16502)
R1 = 0000h (0, 0)          R9 = 4000h (16384, 16384)
R2 = 406Fh (16495, 16495)          RA = 4000h (16384, 16384)
R3 = 0E67h (3687, 3687)          RB = 0000h (0, 0)
R4 = 002Ah (42, 42)          RC = 0000h (0, 0)
R5 = 0048h (72, 72)          RD = 4000h (16384, 16384)
R6 = 0000h (0, 0)          RE = 0000h (0, 0)
R7 = 011Ch (284, 284)          RF = 0000h (0, 0)

Single Step:

011C:  73        STXD     (1 bytes)
011D:  43        LDA R3     (1 bytes)

Halt Address = 011Dh (285)
D = 20h (32, 32)
DF/Carry = 0 (false)
RP = R7 (7) = 011Dh (285)
RX = R8 (8) = 4075h (16501)
Q Flag = 1 (true)
R0 = 0029h (41, 41)          R8 = 4075h (16501, 16501)
R1 = 0000h (0, 0)          R9 = 4000h (16384, 16384)
R2 = 406Fh (16495, 16495)          RA = 4000h (16384, 16384)
R3 = 0E67h (3687, 3687)          RB = 0000h (0, 0)
R4 = 002Ah (42, 42)          RC = 0000h (0, 0)
R5 = 0048h (72, 72)          RD = 4000h (16384, 16384)
R6 = 0000h (0, 0)          RE = 0000h (0, 0)
R7 = 011Dh (285, 285)          RF = 0000h (0, 0)

Single Step:

011D:  43        LDA R3     (1 bytes)
011E:  A7        PLO R7     (1 bytes)

Halt Address = 011Eh (286)
D = 82h (130, -126)
DF/Carry = 0 (false)
RP = R7 (7) = 011Eh (286)
RX = R8 (8) = 4075h (16501)
Q Flag = 1 (true)
R0 = 0029h (41, 41)          R8 = 4075h (16501, 16501)
R1 = 0000h (0, 0)          R9 = 4000h (16384, 16384)
R2 = 406Fh (16495, 16495)          RA = 4000h (16384, 16384)
R3 = 0E68h (3688, 3688)          RB = 0000h (0, 0)
R4 = 002Ah (42, 42)          RC = 0000h (0, 0)
R5 = 0048h (72, 72)          RD = 4000h (16384, 16384)
R6 = 0000h (0, 0)          RE = 0000h (0, 0)
R7 = 011Eh (286, 286)          RF = 0000h (0, 0)

Single Step:

011E:  A7        PLO R7     (1 bytes)
0182:  43        LDA R3     (1 bytes)

Halt Address = 0182h (386)
D = 82h (130, -126)
DF/Carry = 0 (false)
RP = R7 (7) = 0182h (386)
RX = R8 (8) = 4075h (16501)
Q Flag = 1 (true)
R0 = 0029h (41, 41)          R8 = 4075h (16501, 16501)
R1 = 0000h (0, 0)          R9 = 4000h (16384, 16384)
R2 = 406Fh (16495, 16495)          RA = 4000h (16384, 16384)
R3 = 0E68h (3688, 3688)          RB = 0000h (0, 0)
R4 = 002Ah (42, 42)          RC = 0000h (0, 0)
R5 = 0048h (72, 72)          RD = 4000h (16384, 16384)
R6 = 0000h (0, 0)          RE = 0000h (0, 0)
R7 = 0182h (386, 386)          RF = 0000h (0, 0)

Single Step:

0182:  43        LDA R3     (1 bytes)
0183:  A9        PLO R9     (1 bytes)

Halt Address = 0183h (387)
D = 28h (40, 40)
DF/Carry = 0 (false)
RP = R7 (7) = 0183h (387)
RX = R8 (8) = 4075h (16501)
Q Flag = 1 (true)
R0 = 0029h (41, 41)          R8 = 4075h (16501, 16501)
R1 = 0000h (0, 0)          R9 = 4000h (16384, 16384)
R2 = 406Fh (16495, 16495)          RA = 4000h (16384, 16384)
R3 = 0E69h (3689, 3689)          RB = 0000h (0, 0)
R4 = 002Ah (42, 42)          RC = 0000h (0, 0)
R5 = 0048h (72, 72)          RD = 4000h (16384, 16384)
R6 = 0000h (0, 0)          RE = 0000h (0, 0)
R7 = 0183h (387, 387)          RF = 0000h (0, 0)

Single Step:

0183:  A9        PLO R9     (1 bytes)
0184:  09        LDN R9     (1 bytes)

Halt Address = 0184h (388)
D = 28h (40, 40)
DF/Carry = 0 (false)
RP = R7 (7) = 0184h (388)
RX = R8 (8) = 4075h (16501)
Q Flag = 1 (true)
R0 = 0029h (41, 41)          R8 = 4075h (16501, 16501)
R1 = 0000h (0, 0)          R9 = 4028h (16424, 16424)
R2 = 406Fh (16495, 16495)          RA = 4000h (16384, 16384)
R3 = 0E69h (3689, 3689)          RB = 0000h (0, 0)
R4 = 002Ah (42, 42)          RC = 0000h (0, 0)
R5 = 0048h (72, 72)          RD = 4000h (16384, 16384)
R6 = 0000h (0, 0)          RE = 0000h (0, 0)
R7 = 0184h (388, 388)          RF = 0000h (0, 0)

Single Step:

0184:  09        LDN R9     (1 bytes)
0185:  30 0F     BR 010F     (2 bytes)

Halt Address = 0185h (389)
D = 00h (0, 0)
DF/Carry = 0 (false)
RP = R7 (7) = 0185h (389)
RX = R8 (8) = 4075h (16501)
Q Flag = 1 (true)
R0 = 0029h (41, 41)          R8 = 4075h (16501, 16501)
R1 = 0000h (0, 0)          R9 = 4028h (16424, 16424)
R2 = 406Fh (16495, 16495)          RA = 4000h (16384, 16384)
R3 = 0E69h (3689, 3689)          RB = 0000h (0, 0)
R4 = 002Ah (42, 42)          RC = 0000h (0, 0)
R5 = 0048h (72, 72)          RD = 4000h (16384, 16384)
R6 = 0000h (0, 0)          RE = 0000h (0, 0)
R7 = 0185h (389, 389)          RF = 0000h (0, 0)


Single Step:

0185:  30 0F     BR 010F     (2 bytes)
010F:  60        IRX     (1 bytes)

Halt Address = 010Fh (271)
D = 00h (0, 0)
DF/Carry = 0 (false)
RP = R7 (7) = 010Fh (271)
RX = R8 (8) = 4075h (16501)
Q Flag = 1 (true)
R0 = 0029h (41, 41)          R8 = 4075h (16501, 16501)
R1 = 0000h (0, 0)          R9 = 4028h (16424, 16424)
R2 = 406Fh (16495, 16495)          RA = 4000h (16384, 16384)
R3 = 0E69h (3689, 3689)          RB = 0000h (0, 0)
R4 = 002Ah (42, 42)          RC = 0000h (0, 0)
R5 = 0048h (72, 72)          RD = 4000h (16384, 16384)
R6 = 0000h (0, 0)          RE = 0000h (0, 0)
R7 = 010Fh (271, 271)          RF = 0000h (0, 0)

Single Step:

010F:  60        IRX     (1 bytes)
0110:  60        IRX     (1 bytes)

Halt Address = 0110h (272)
D = 00h (0, 0)
DF/Carry = 0 (false)
RP = R7 (7) = 0110h (272)
RX = R8 (8) = 4076h (16502)
Q Flag = 1 (true)
R0 = 0029h (41, 41)          R8 = 4076h (16502, 16502)
R1 = 0000h (0, 0)          R9 = 4028h (16424, 16424)
R2 = 406Fh (16495, 16495)          RA = 4000h (16384, 16384)
R3 = 0E69h (3689, 3689)          RB = 0000h (0, 0)
R4 = 002Ah (42, 42)          RC = 0000h (0, 0)
R5 = 0048h (72, 72)          RD = 4000h (16384, 16384)
R6 = 0000h (0, 0)          RE = 0000h (0, 0)
R7 = 0110h (272, 272)          RF = 0000h (0, 0)

Single Step:

0110:  60        IRX     (1 bytes)
0111:  30 17     BR 0117     (2 bytes)

Halt Address = 0111h (273)
D = 00h (0, 0)
DF/Carry = 0 (false)
RP = R7 (7) = 0111h (273)
RX = R8 (8) = 4077h (16503)
Q Flag = 1 (true)
R0 = 0029h (41, 41)          R8 = 4077h (16503, 16503)
R1 = 0000h (0, 0)          R9 = 4028h (16424, 16424)
R2 = 406Fh (16495, 16495)          RA = 4000h (16384, 16384)
R3 = 0E69h (3689, 3689)          RB = 0000h (0, 0)
R4 = 002Ah (42, 42)          RC = 0000h (0, 0)
R5 = 0048h (72, 72)          RD = 4000h (16384, 16384)
R6 = 0000h (0, 0)          RE = 0000h (0, 0)
R7 = 0111h (273, 273)          RF = 0000h (0, 0)

Single Step:

0111:  30 17     BR 0117     (2 bytes)
0117:  E2        SEX R2     (1 bytes)

Halt Address = 0117h (279)
D = 00h (0, 0)
DF/Carry = 0 (false)
RP = R7 (7) = 0117h (279)
RX = R8 (8) = 4077h (16503)
Q Flag = 1 (true)
R0 = 0029h (41, 41)          R8 = 4077h (16503, 16503)
R1 = 0000h (0, 0)          R9 = 4028h (16424, 16424)
R2 = 406Fh (16495, 16495)          RA = 4000h (16384, 16384)
R3 = 0E69h (3689, 3689)          RB = 0000h (0, 0)
R4 = 002Ah (42, 42)          RC = 0000h (0, 0)
R5 = 0048h (72, 72)          RD = 4000h (16384, 16384)
R6 = 0000h (0, 0)          RE = 0000h (0, 0)
R7 = 0117h (279, 279)          RF = 0000h (0, 0)

Single Step:

0117:  E2        SEX R2     (1 bytes)
0118:  D3        SEP R3     (1 bytes)

Halt Address = 0118h (280)
D = 00h (0, 0)
DF/Carry = 0 (false)
RP = R7 (7) = 0118h (280)
RX = R2 (2) = 406Fh (16495)
Q Flag = 1 (true)
R0 = 0029h (41, 41)          R8 = 4077h (16503, 16503)
R1 = 0000h (0, 0)          R9 = 4028h (16424, 16424)
R2 = 406Fh (16495, 16495)          RA = 4000h (16384, 16384)
R3 = 0E69h (3689, 3689)          RB = 0000h (0, 0)
R4 = 002Ah (42, 42)          RC = 0000h (0, 0)
R5 = 0048h (72, 72)          RD = 4000h (16384, 16384)
R6 = 0000h (0, 0)          RE = 0000h (0, 0)
R7 = 0118h (280, 280)          RF = 0000h (0, 0)

Single Step:

0118:  D3        SEP R3     (1 bytes)
0E69:  C2 0E 77  LBZ 0E77     (3 bytes)

Halt Address = 0E69h (3689)
D = 00h (0, 0)
DF/Carry = 0 (false)
RP = R3 (3) = 0E69h (3689)
RX = R2 (2) = 406Fh (16495)
Q Flag = 1 (true)
R0 = 0029h (41, 41)          R8 = 4077h (16503, 16503)
R1 = 0000h (0, 0)          R9 = 4028h (16424, 16424)
R2 = 406Fh (16495, 16495)          RA = 4000h (16384, 16384)
R3 = 0E69h (3689, 3689)          RB = 0000h (0, 0)
R4 = 002Ah (42, 42)          RC = 0000h (0, 0)
R5 = 0048h (72, 72)          RD = 4000h (16384, 16384)
R6 = 0000h (0, 0)          RE = 0000h (0, 0)
R7 = 0119h (281, 281)          RF = 0000h (0, 0)

Single Step:

0E69:  C2 0E 77  LBZ 0E77     (3 bytes)
0E77:  F8 00     LDI 00     (2 bytes)

Halt Address = 0E77h (3703)
D = 00h (0, 0)
DF/Carry = 0 (false)
RP = R3 (3) = 0E77h (3703)
RX = R2 (2) = 406Fh (16495)
Q Flag = 1 (true)
R0 = 0029h (41, 41)          R8 = 4077h (16503, 16503)
R1 = 0000h (0, 0)          R9 = 4028h (16424, 16424)
R2 = 406Fh (16495, 16495)          RA = 4000h (16384, 16384)
R3 = 0E77h (3703, 3703)          RB = 0000h (0, 0)
R4 = 002Ah (42, 42)          RC = 0000h (0, 0)
R5 = 0048h (72, 72)          RD = 4000h (16384, 16384)
R6 = 0000h (0, 0)          RE = 0000h (0, 0)
R7 = 0119h (281, 281)          RF = 0000h (0, 0)

Single Step:

0E77:  F8 00     LDI 00     (2 bytes)
0E79:  AA        PLO RA     (1 bytes)

Halt Address = 0E79h (3705)
D = 00h (0, 0)
DF/Carry = 0 (false)
RP = R3 (3) = 0E79h (3705)
RX = R2 (2) = 406Fh (16495)
Q Flag = 1 (true)
R0 = 0029h (41, 41)          R8 = 4077h (16503, 16503)
R1 = 0000h (0, 0)          R9 = 4028h (16424, 16424)
R2 = 406Fh (16495, 16495)          RA = 4000h (16384, 16384)
R3 = 0E79h (3705, 3705)          RB = 0000h (0, 0)
R4 = 002Ah (42, 42)          RC = 0000h (0, 0)
R5 = 0048h (72, 72)          RD = 4000h (16384, 16384)
R6 = 0000h (0, 0)          RE = 0000h (0, 0)
R7 = 0119h (281, 281)          RF = 0000h (0, 0)

Single Step:

0E79:  AA        PLO RA     (1 bytes)
0E7A:  F8 00     LDI 00     (2 bytes)

Halt Address = 0E7Ah (3706)
D = 00h (0, 0)
DF/Carry = 0 (false)
RP = R3 (3) = 0E7Ah (3706)
RX = R2 (2) = 406Fh (16495)
Q Flag = 1 (true)
R0 = 0029h (41, 41)          R8 = 4077h (16503, 16503)
R1 = 0000h (0, 0)          R9 = 4028h (16424, 16424)
R2 = 406Fh (16495, 16495)          RA = 4000h (16384, 16384)
R3 = 0E7Ah (3706, 3706)          RB = 0000h (0, 0)
R4 = 002Ah (42, 42)          RC = 0000h (0, 0)
R5 = 0048h (72, 72)          RD = 4000h (16384, 16384)
R6 = 0000h (0, 0)          RE = 0000h (0, 0)
R7 = 0119h (281, 281)          RF = 0000h (0, 0)

Single Step:

0E7A:  F8 00     LDI 00     (2 bytes)
0E7C:  5A        STR RA     (1 bytes)

Halt Address = 0E7Ch (3708)
D = 00h (0, 0)
DF/Carry = 0 (false)
RP = R3 (3) = 0E7Ch (3708)
RX = R2 (2) = 406Fh (16495)
Q Flag = 1 (true)
R0 = 0029h (41, 41)          R8 = 4077h (16503, 16503)
R1 = 0000h (0, 0)          R9 = 4028h (16424, 16424)
R2 = 406Fh (16495, 16495)          RA = 4000h (16384, 16384)
R3 = 0E7Ch (3708, 3708)          RB = 0000h (0, 0)
R4 = 002Ah (42, 42)          RC = 0000h (0, 0)
R5 = 0048h (72, 72)          RD = 4000h (16384, 16384)
R6 = 0000h (0, 0)          RE = 0000h (0, 0)
R7 = 0119h (281, 281)          RF = 0000h (0, 0)


Single Step:

0E7C:  5A        STR RA     (1 bytes)
0E7D:  D7        SEP R7     (1 bytes)

Halt Address = 0E7Dh (3709)
D = 00h (0, 0)
DF/Carry = 0 (false)
RP = R3 (3) = 0E7Dh (3709)
RX = R2 (2) = 406Fh (16495)
Q Flag = 1 (true)
R0 = 0029h (41, 41)          R8 = 4077h (16503, 16503)
R1 = 0000h (0, 0)          R9 = 4028h (16424, 16424)
R2 = 406Fh (16495, 16495)          RA = 4000h (16384, 16384)
R3 = 0E7Dh (3709, 3709)          RB = 0000h (0, 0)
R4 = 002Ah (42, 42)          RC = 0000h (0, 0)
R5 = 0048h (72, 72)          RD = 4000h (16384, 16384)
R6 = 0000h (0, 0)          RE = 0000h (0, 0)
R7 = 0119h (281, 281)          RF = 0000h (0, 0)

Single Step:

0E7D:  D7        SEP R7     (1 bytes)
0119:  E8        SEX R8     (1 bytes)

Halt Address = 0119h (281)
D = 00h (0, 0)
DF/Carry = 0 (false)
RP = R7 (7) = 0119h (281)
RX = R2 (2) = 406Fh (16495)
Q Flag = 1 (true)
R0 = 0029h (41, 41)          R8 = 4077h (16503, 16503)
R1 = 0000h (0, 0)          R9 = 4028h (16424, 16424)
R2 = 406Fh (16495, 16495)          RA = 4000h (16384, 16384)
R3 = 0E7Eh (3710, 3710)          RB = 0000h (0, 0)
R4 = 002Ah (42, 42)          RC = 0000h (0, 0)
R5 = 0048h (72, 72)          RD = 4000h (16384, 16384)
R6 = 0000h (0, 0)          RE = 0000h (0, 0)
R7 = 0119h (281, 281)          RF = 0000h (0, 0)

Single Step:

0119:  E8        SEX R8     (1 bytes)
011A:  73        STXD     (1 bytes)

Halt Address = 011Ah (282)
D = 00h (0, 0)
DF/Carry = 0 (false)
RP = R7 (7) = 011Ah (282)
RX = R8 (8) = 4077h (16503)
Q Flag = 1 (true)
R0 = 0029h (41, 41)          R8 = 4077h (16503, 16503)
R1 = 0000h (0, 0)          R9 = 4028h (16424, 16424)
R2 = 406Fh (16495, 16495)          RA = 4000h (16384, 16384)
R3 = 0E7Eh (3710, 3710)          RB = 0000h (0, 0)
R4 = 002Ah (42, 42)          RC = 0000h (0, 0)
R5 = 0048h (72, 72)          RD = 4000h (16384, 16384)
R6 = 0000h (0, 0)          RE = 0000h (0, 0)
R7 = 011Ah (282, 282)          RF = 0000h (0, 0)

Single Step:

011A:  73        STXD     (1 bytes)
011B:  76        SHRC     (1 bytes)

Halt Address = 011Bh (283)
D = 00h (0, 0)
DF/Carry = 0 (false)
RP = R7 (7) = 011Bh (283)
RX = R8 (8) = 4076h (16502)
Q Flag = 1 (true)
R0 = 0029h (41, 41)          R8 = 4076h (16502, 16502)
R1 = 0000h (0, 0)          R9 = 4028h (16424, 16424)
R2 = 406Fh (16495, 16495)          RA = 4000h (16384, 16384)
R3 = 0E7Eh (3710, 3710)          RB = 0000h (0, 0)
R4 = 002Ah (42, 42)          RC = 0000h (0, 0)
R5 = 0048h (72, 72)          RD = 4000h (16384, 16384)
R6 = 0000h (0, 0)          RE = 0000h (0, 0)
R7 = 011Bh (283, 283)          RF = 0000h (0, 0)

Single Step:

011B:  76        SHRC     (1 bytes)
011C:  73        STXD     (1 bytes)

Halt Address = 011Ch (284)
D = 00h (0, 0)
DF/Carry = 0 (false)
RP = R7 (7) = 011Ch (284)
RX = R8 (8) = 4076h (16502)
Q Flag = 1 (true)
R0 = 0029h (41, 41)          R8 = 4076h (16502, 16502)
R1 = 0000h (0, 0)          R9 = 4028h (16424, 16424)
R2 = 406Fh (16495, 16495)          RA = 4000h (16384, 16384)
R3 = 0E7Eh (3710, 3710)          RB = 0000h (0, 0)
R4 = 002Ah (42, 42)          RC = 0000h (0, 0)
R5 = 0048h (72, 72)          RD = 4000h (16384, 16384)
R6 = 0000h (0, 0)          RE = 0000h (0, 0)
R7 = 011Ch (284, 284)          RF = 0000h (0, 0)

Single Step:

011C:  73        STXD     (1 bytes)
011D:  43        LDA R3     (1 bytes)

Halt Address = 011Dh (285)
D = 00h (0, 0)
DF/Carry = 0 (false)
RP = R7 (7) = 011Dh (285)
RX = R8 (8) = 4075h (16501)
Q Flag = 1 (true)
R0 = 0029h (41, 41)          R8 = 4075h (16501, 16501)
R1 = 0000h (0, 0)          R9 = 4028h (16424, 16424)
R2 = 406Fh (16495, 16495)          RA = 4000h (16384, 16384)
R3 = 0E7Eh (3710, 3710)          RB = 0000h (0, 0)
R4 = 002Ah (42, 42)          RC = 0000h (0, 0)
R5 = 0048h (72, 72)          RD = 4000h (16384, 16384)
R6 = 0000h (0, 0)          RE = 0000h (0, 0)
R7 = 011Dh (285, 285)          RF = 0000h (0, 0)

Single Step:

011D:  43        LDA R3     (1 bytes)
011E:  A7        PLO R7     (1 bytes)

Halt Address = 011Eh (286)
D = F9h (249, -7)
DF/Carry = 0 (false)
RP = R7 (7) = 011Eh (286)
RX = R8 (8) = 4075h (16501)
Q Flag = 1 (true)
R0 = 0029h (41, 41)          R8 = 4075h (16501, 16501)
R1 = 0000h (0, 0)          R9 = 4028h (16424, 16424)
R2 = 406Fh (16495, 16495)          RA = 4000h (16384, 16384)
R3 = 0E7Fh (3711, 3711)          RB = 0000h (0, 0)
R4 = 002Ah (42, 42)          RC = 0000h (0, 0)
R5 = 0048h (72, 72)          RD = 4000h (16384, 16384)
R6 = 0000h (0, 0)          RE = 0000h (0, 0)
R7 = 011Eh (286, 286)          RF = 0000h (0, 0)

Single Step:

011E:  A7        PLO R7     (1 bytes)
01F9:  43        LDA R3     (1 bytes)

Halt Address = 01F9h (505)
D = F9h (249, -7)
DF/Carry = 0 (false)
RP = R7 (7) = 01F9h (505)
RX = R8 (8) = 4075h (16501)
Q Flag = 1 (true)
R0 = 0029h (41, 41)          R8 = 4075h (16501, 16501)
R1 = 0000h (0, 0)          R9 = 4028h (16424, 16424)
R2 = 406Fh (16495, 16495)          RA = 4000h (16384, 16384)
R3 = 0E7Fh (3711, 3711)          RB = 0000h (0, 0)
R4 = 002Ah (42, 42)          RC = 0000h (0, 0)
R5 = 0048h (72, 72)          RD = 4000h (16384, 16384)
R6 = 0000h (0, 0)          RE = 0000h (0, 0)
R7 = 01F9h (505, 505)          RF = 0000h (0, 0)

Single Step:

01F9:  43        LDA R3     (1 bytes)
01FA:  32 13     BZ 0113     (2 bytes)

Halt Address = 01FAh (506)
D = 06h (6, 6)
DF/Carry = 0 (false)
RP = R7 (7) = 01FAh (506)
RX = R8 (8) = 4075h (16501)
Q Flag = 1 (true)
R0 = 0029h (41, 41)          R8 = 4075h (16501, 16501)
R1 = 0000h (0, 0)          R9 = 4028h (16424, 16424)
R2 = 406Fh (16495, 16495)          RA = 4000h (16384, 16384)
R3 = 0E80h (3712, 3712)          RB = 0000h (0, 0)
R4 = 002Ah (42, 42)          RC = 0000h (0, 0)
R5 = 0048h (72, 72)          RD = 4000h (16384, 16384)
R6 = 0000h (0, 0)          RE = 0000h (0, 0)
R7 = 01FAh (506, 506)          RF = 0000h (0, 0)

Single Step:

01FA:  32 13     BZ 0113     (2 bytes)
01FC:  A9        PLO R9     (1 bytes)

Halt Address = 01FCh (508)
D = 06h (6, 6)
DF/Carry = 0 (false)
RP = R7 (7) = 01FCh (508)
RX = R8 (8) = 4075h (16501)
Q Flag = 1 (true)
R0 = 0029h (41, 41)          R8 = 4075h (16501, 16501)
R1 = 0000h (0, 0)          R9 = 4028h (16424, 16424)
R2 = 406Fh (16495, 16495)          RA = 4000h (16384, 16384)
R3 = 0E80h (3712, 3712)          RB = 0000h (0, 0)
R4 = 002Ah (42, 42)          RC = 0000h (0, 0)
R5 = 0048h (72, 72)          RD = 4000h (16384, 16384)
R6 = 0000h (0, 0)          RE = 0000h (0, 0)
R7 = 01FCh (508, 508)          RF = 0000h (0, 0)


Single Step:

01FC:  A9        PLO R9     (1 bytes)
01FD:  F8 00     LDI 00     (2 bytes)

Halt Address = 01FDh (509)
D = 06h (6, 6)
DF/Carry = 0 (false)
RP = R7 (7) = 01FDh (509)
RX = R8 (8) = 4075h (16501)
Q Flag = 1 (true)
R0 = 0029h (41, 41)          R8 = 4075h (16501, 16501)
R1 = 0000h (0, 0)          R9 = 4006h (16390, 16390)
R2 = 406Fh (16495, 16495)          RA = 4000h (16384, 16384)
R3 = 0E80h (3712, 3712)          RB = 0000h (0, 0)
R4 = 002Ah (42, 42)          RC = 0000h (0, 0)
R5 = 0048h (72, 72)          RD = 4000h (16384, 16384)
R6 = 0000h (0, 0)          RE = 0000h (0, 0)
R7 = 01FDh (509, 509)          RF = 0000h (0, 0)

Single Step:

01FD:  F8 00     LDI 00     (2 bytes)
01FF:  59        STR R9     (1 bytes)

Halt Address = 01FFh (511)
D = 00h (0, 0)
DF/Carry = 0 (false)
RP = R7 (7) = 01FFh (511)
RX = R8 (8) = 4075h (16501)
Q Flag = 1 (true)
R0 = 0029h (41, 41)          R8 = 4075h (16501, 16501)
R1 = 0000h (0, 0)          R9 = 4006h (16390, 16390)
R2 = 406Fh (16495, 16495)          RA = 4000h (16384, 16384)
R3 = 0E80h (3712, 3712)          RB = 0000h (0, 0)
R4 = 002Ah (42, 42)          RC = 0000h (0, 0)
R5 = 0048h (72, 72)          RD = 4000h (16384, 16384)
R6 = 0000h (0, 0)          RE = 0000h (0, 0)
R7 = 01FFh (511, 511)          RF = 0000h (0, 0)

Single Step:

01FF:  59        STR R9     (1 bytes)
0200:  C0 01 F9  LBR 01F9     (3 bytes)

Halt Address = 0200h (512)
D = 00h (0, 0)
DF/Carry = 0 (false)
RP = R7 (7) = 0200h (512)
RX = R8 (8) = 4075h (16501)
Q Flag = 1 (true)
R0 = 0029h (41, 41)          R8 = 4075h (16501, 16501)
R1 = 0000h (0, 0)          R9 = 4006h (16390, 16390)
R2 = 406Fh (16495, 16495)          RA = 4000h (16384, 16384)
R3 = 0E80h (3712, 3712)          RB = 0000h (0, 0)
R4 = 002Ah (42, 42)          RC = 0000h (0, 0)
R5 = 0048h (72, 72)          RD = 4000h (16384, 16384)
R6 = 0000h (0, 0)          RE = 0000h (0, 0)
R7 = 0200h (512, 512)          RF = 0000h (0, 0)

Single Step:

0200:  C0 01 F9  LBR 01F9     (3 bytes)
01F9:  43        LDA R3     (1 bytes)

Halt Address = 01F9h (505)
D = 00h (0, 0)
DF/Carry = 0 (false)
RP = R7 (7) = 01F9h (505)
RX = R8 (8) = 4075h (16501)
Q Flag = 1 (true)
R0 = 0029h (41, 41)          R8 = 4075h (16501, 16501)
R1 = 0000h (0, 0)          R9 = 4006h (16390, 16390)
R2 = 406Fh (16495, 16495)          RA = 4000h (16384, 16384)
R3 = 0E80h (3712, 3712)          RB = 0000h (0, 0)
R4 = 002Ah (42, 42)          RC = 0000h (0, 0)
R5 = 0048h (72, 72)          RD = 4000h (16384, 16384)
R6 = 0000h (0, 0)          RE = 0000h (0, 0)
R7 = 01F9h (505, 505)          RF = 0000h (0, 0)

Single Step:

01F9:  43        LDA R3     (1 bytes)
01FA:  32 13     BZ 0113     (2 bytes)

Halt Address = 01FAh (506)
D = 07h (7, 7)
DF/Carry = 0 (false)
RP = R7 (7) = 01FAh (506)
RX = R8 (8) = 4075h (16501)
Q Flag = 1 (true)
R0 = 0029h (41, 41)          R8 = 4075h (16501, 16501)
R1 = 0000h (0, 0)          R9 = 4006h (16390, 16390)
R2 = 406Fh (16495, 16495)          RA = 4000h (16384, 16384)
R3 = 0E81h (3713, 3713)          RB = 0000h (0, 0)
R4 = 002Ah (42, 42)          RC = 0000h (0, 0)
R5 = 0048h (72, 72)          RD = 4000h (16384, 16384)
R6 = 0000h (0, 0)          RE = 0000h (0, 0)
R7 = 01FAh (506, 506)          RF = 0000h (0, 0)

Single Step:

01FA:  32 13     BZ 0113     (2 bytes)
01FC:  A9        PLO R9     (1 bytes)

Halt Address = 01FCh (508)
D = 07h (7, 7)
DF/Carry = 0 (false)
RP = R7 (7) = 01FCh (508)
RX = R8 (8) = 4075h (16501)
Q Flag = 1 (true)
R0 = 0029h (41, 41)          R8 = 4075h (16501, 16501)
R1 = 0000h (0, 0)          R9 = 4006h (16390, 16390)
R2 = 406Fh (16495, 16495)          RA = 4000h (16384, 16384)
R3 = 0E81h (3713, 3713)          RB = 0000h (0, 0)
R4 = 002Ah (42, 42)          RC = 0000h (0, 0)
R5 = 0048h (72, 72)          RD = 4000h (16384, 16384)
R6 = 0000h (0, 0)          RE = 0000h (0, 0)
R7 = 01FCh (508, 508)          RF = 0000h (0, 0)

Single Step:

01FC:  A9        PLO R9     (1 bytes)
01FD:  F8 00     LDI 00     (2 bytes)

Halt Address = 01FDh (509)
D = 07h (7, 7)
DF/Carry = 0 (false)
RP = R7 (7) = 01FDh (509)
RX = R8 (8) = 4075h (16501)
Q Flag = 1 (true)
R0 = 0029h (41, 41)          R8 = 4075h (16501, 16501)
R1 = 0000h (0, 0)          R9 = 4007h (16391, 16391)
R2 = 406Fh (16495, 16495)          RA = 4000h (16384, 16384)
R3 = 0E81h (3713, 3713)          RB = 0000h (0, 0)
R4 = 002Ah (42, 42)          RC = 0000h (0, 0)
R5 = 0048h (72, 72)          RD = 4000h (16384, 16384)
R6 = 0000h (0, 0)          RE = 0000h (0, 0)
R7 = 01FDh (509, 509)          RF = 0000h (0, 0)

Single Step:

01FD:  F8 00     LDI 00     (2 bytes)
01FF:  59        STR R9     (1 bytes)

Halt Address = 01FFh (511)
D = 00h (0, 0)
DF/Carry = 0 (false)
RP = R7 (7) = 01FFh (511)
RX = R8 (8) = 4075h (16501)
Q Flag = 1 (true)
R0 = 0029h (41, 41)          R8 = 4075h (16501, 16501)
R1 = 0000h (0, 0)          R9 = 4007h (16391, 16391)
R2 = 406Fh (16495, 16495)          RA = 4000h (16384, 16384)
R3 = 0E81h (3713, 3713)          RB = 0000h (0, 0)
R4 = 002Ah (42, 42)          RC = 0000h (0, 0)
R5 = 0048h (72, 72)          RD = 4000h (16384, 16384)
R6 = 0000h (0, 0)          RE = 0000h (0, 0)
R7 = 01FFh (511, 511)          RF = 0000h (0, 0)

Single Step:

01FF:  59        STR R9     (1 bytes)
0200:  C0 01 F9  LBR 01F9     (3 bytes)

Halt Address = 0200h (512)
D = 00h (0, 0)
DF/Carry = 0 (false)
RP = R7 (7) = 0200h (512)
RX = R8 (8) = 4075h (16501)
Q Flag = 1 (true)
R0 = 0029h (41, 41)          R8 = 4075h (16501, 16501)
R1 = 0000h (0, 0)          R9 = 4007h (16391, 16391)
R2 = 406Fh (16495, 16495)          RA = 4000h (16384, 16384)
R3 = 0E81h (3713, 3713)          RB = 0000h (0, 0)
R4 = 002Ah (42, 42)          RC = 0000h (0, 0)
R5 = 0048h (72, 72)          RD = 4000h (16384, 16384)
R6 = 0000h (0, 0)          RE = 0000h (0, 0)
R7 = 0200h (512, 512)          RF = 0000h (0, 0)

Single Step:

0200:  C0 01 F9  LBR 01F9     (3 bytes)
01F9:  43        LDA R3     (1 bytes)

Halt Address = 01F9h (505)
D = 00h (0, 0)
DF/Carry = 0 (false)
RP = R7 (7) = 01F9h (505)
RX = R8 (8) = 4075h (16501)
Q Flag = 1 (true)
R0 = 0029h (41, 41)          R8 = 4075h (16501, 16501)
R1 = 0000h (0, 0)          R9 = 4007h (16391, 16391)
R2 = 406Fh (16495, 16495)          RA = 4000h (16384, 16384)
R3 = 0E81h (3713, 3713)          RB = 0000h (0, 0)
R4 = 002Ah (42, 42)          RC = 0000h (0, 0)
R5 = 0048h (72, 72)          RD = 4000h (16384, 16384)
R6 = 0000h (0, 0)          RE = 0000h (0, 0)
R7 = 01F9h (505, 505)          RF = 0000h (0, 0)


Single Step:

01F9:  43        LDA R3     (1 bytes)
01FA:  32 13     BZ 0113     (2 bytes)

Halt Address = 01FAh (506)
D = 24h (36, 36)
DF/Carry = 0 (false)
RP = R7 (7) = 01FAh (506)
RX = R8 (8) = 4075h (16501)
Q Flag = 1 (true)
R0 = 0029h (41, 41)          R8 = 4075h (16501, 16501)
R1 = 0000h (0, 0)          R9 = 4007h (16391, 16391)
R2 = 406Fh (16495, 16495)          RA = 4000h (16384, 16384)
R3 = 0E82h (3714, 3714)          RB = 0000h (0, 0)
R4 = 002Ah (42, 42)          RC = 0000h (0, 0)
R5 = 0048h (72, 72)          RD = 4000h (16384, 16384)
R6 = 0000h (0, 0)          RE = 0000h (0, 0)
R7 = 01FAh (506, 506)          RF = 0000h (0, 0)

Single Step:

01FA:  32 13     BZ 0113     (2 bytes)
01FC:  A9        PLO R9     (1 bytes)

Halt Address = 01FCh (508)
D = 24h (36, 36)
DF/Carry = 0 (false)
RP = R7 (7) = 01FCh (508)
RX = R8 (8) = 4075h (16501)
Q Flag = 1 (true)
R0 = 0029h (41, 41)          R8 = 4075h (16501, 16501)
R1 = 0000h (0, 0)          R9 = 4007h (16391, 16391)
R2 = 406Fh (16495, 16495)          RA = 4000h (16384, 16384)
R3 = 0E82h (3714, 3714)          RB = 0000h (0, 0)
R4 = 002Ah (42, 42)          RC = 0000h (0, 0)
R5 = 0048h (72, 72)          RD = 4000h (16384, 16384)
R6 = 0000h (0, 0)          RE = 0000h (0, 0)
R7 = 01FCh (508, 508)          RF = 0000h (0, 0)

Single Step:

01FC:  A9        PLO R9     (1 bytes)
01FD:  F8 00     LDI 00     (2 bytes)

Halt Address = 01FDh (509)
D = 24h (36, 36)
DF/Carry = 0 (false)
RP = R7 (7) = 01FDh (509)
RX = R8 (8) = 4075h (16501)
Q Flag = 1 (true)
R0 = 0029h (41, 41)          R8 = 4075h (16501, 16501)
R1 = 0000h (0, 0)          R9 = 4024h (16420, 16420)
R2 = 406Fh (16495, 16495)          RA = 4000h (16384, 16384)
R3 = 0E82h (3714, 3714)          RB = 0000h (0, 0)
R4 = 002Ah (42, 42)          RC = 0000h (0, 0)
R5 = 0048h (72, 72)          RD = 4000h (16384, 16384)
R6 = 0000h (0, 0)          RE = 0000h (0, 0)
R7 = 01FDh (509, 509)          RF = 0000h (0, 0)

Single Step:

01FD:  F8 00     LDI 00     (2 bytes)
01FF:  59        STR R9     (1 bytes)

Halt Address = 01FFh (511)
D = 00h (0, 0)
DF/Carry = 0 (false)
RP = R7 (7) = 01FFh (511)
RX = R8 (8) = 4075h (16501)
Q Flag = 1 (true)
R0 = 0029h (41, 41)          R8 = 4075h (16501, 16501)
R1 = 0000h (0, 0)          R9 = 4024h (16420, 16420)
R2 = 406Fh (16495, 16495)          RA = 4000h (16384, 16384)
R3 = 0E82h (3714, 3714)          RB = 0000h (0, 0)
R4 = 002Ah (42, 42)          RC = 0000h (0, 0)
R5 = 0048h (72, 72)          RD = 4000h (16384, 16384)
R6 = 0000h (0, 0)          RE = 0000h (0, 0)
R7 = 01FFh (511, 511)          RF = 0000h (0, 0)

Single Step:

01FF:  59        STR R9     (1 bytes)
0200:  C0 01 F9  LBR 01F9     (3 bytes)

Halt Address = 0200h (512)
D = 00h (0, 0)
DF/Carry = 0 (false)
RP = R7 (7) = 0200h (512)
RX = R8 (8) = 4075h (16501)
Q Flag = 1 (true)
R0 = 0029h (41, 41)          R8 = 4075h (16501, 16501)
R1 = 0000h (0, 0)          R9 = 4024h (16420, 16420)
R2 = 406Fh (16495, 16495)          RA = 4000h (16384, 16384)
R3 = 0E82h (3714, 3714)          RB = 0000h (0, 0)
R4 = 002Ah (42, 42)          RC = 0000h (0, 0)
R5 = 0048h (72, 72)          RD = 4000h (16384, 16384)
R6 = 0000h (0, 0)          RE = 0000h (0, 0)
R7 = 0200h (512, 512)          RF = 0000h (0, 0)

Single Step:

0200:  C0 01 F9  LBR 01F9     (3 bytes)
01F9:  43        LDA R3     (1 bytes)

Halt Address = 01F9h (505)
D = 00h (0, 0)
DF/Carry = 0 (false)
RP = R7 (7) = 01F9h (505)
RX = R8 (8) = 4075h (16501)
Q Flag = 1 (true)
R0 = 0029h (41, 41)          R8 = 4075h (16501, 16501)
R1 = 0000h (0, 0)          R9 = 4024h (16420, 16420)
R2 = 406Fh (16495, 16495)          RA = 4000h (16384, 16384)
R3 = 0E82h (3714, 3714)          RB = 0000h (0, 0)
R4 = 002Ah (42, 42)          RC = 0000h (0, 0)
R5 = 0048h (72, 72)          RD = 4000h (16384, 16384)
R6 = 0000h (0, 0)          RE = 0000h (0, 0)
R7 = 01F9h (505, 505)          RF = 0000h (0, 0)

Single Step:

01F9:  43        LDA R3     (1 bytes)
01FA:  32 13     BZ 0113     (2 bytes)

Halt Address = 01FAh (506)
D = 25h (37, 37)
DF/Carry = 0 (false)
RP = R7 (7) = 01FAh (506)
RX = R8 (8) = 4075h (16501)
Q Flag = 1 (true)
R0 = 0029h (41, 41)          R8 = 4075h (16501, 16501)
R1 = 0000h (0, 0)          R9 = 4024h (16420, 16420)
R2 = 406Fh (16495, 16495)          RA = 4000h (16384, 16384)
R3 = 0E83h (3715, 3715)          RB = 0000h (0, 0)
R4 = 002Ah (42, 42)          RC = 0000h (0, 0)
R5 = 0048h (72, 72)          RD = 4000h (16384, 16384)
R6 = 0000h (0, 0)          RE = 0000h (0, 0)
R7 = 01FAh (506, 506)          RF = 0000h (0, 0)

Single Step:

01FA:  32 13     BZ 0113     (2 bytes)
01FC:  A9        PLO R9     (1 bytes)

Halt Address = 01FCh (508)
D = 25h (37, 37)
DF/Carry = 0 (false)
RP = R7 (7) = 01FCh (508)
RX = R8 (8) = 4075h (16501)
Q Flag = 1 (true)
R0 = 0029h (41, 41)          R8 = 4075h (16501, 16501)
R1 = 0000h (0, 0)          R9 = 4024h (16420, 16420)
R2 = 406Fh (16495, 16495)          RA = 4000h (16384, 16384)
R3 = 0E83h (3715, 3715)          RB = 0000h (0, 0)
R4 = 002Ah (42, 42)          RC = 0000h (0, 0)
R5 = 0048h (72, 72)          RD = 4000h (16384, 16384)
R6 = 0000h (0, 0)          RE = 0000h (0, 0)
R7 = 01FCh (508, 508)          RF = 0000h (0, 0)

Single Step:

01FC:  A9        PLO R9     (1 bytes)
01FD:  F8 00     LDI 00     (2 bytes)

Halt Address = 01FDh (509)
D = 25h (37, 37)
DF/Carry = 0 (false)
RP = R7 (7) = 01FDh (509)
RX = R8 (8) = 4075h (16501)
Q Flag = 1 (true)
R0 = 0029h (41, 41)          R8 = 4075h (16501, 16501)
R1 = 0000h (0, 0)          R9 = 4025h (16421, 16421)
R2 = 406Fh (16495, 16495)          RA = 4000h (16384, 16384)
R3 = 0E83h (3715, 3715)          RB = 0000h (0, 0)
R4 = 002Ah (42, 42)          RC = 0000h (0, 0)
R5 = 0048h (72, 72)          RD = 4000h (16384, 16384)
R6 = 0000h (0, 0)          RE = 0000h (0, 0)
R7 = 01FDh (509, 509)          RF = 0000h (0, 0)

Single Step:

01FD:  F8 00     LDI 00     (2 bytes)
01FF:  59        STR R9     (1 bytes)

Halt Address = 01FFh (511)
D = 00h (0, 0)
DF/Carry = 0 (false)
RP = R7 (7) = 01FFh (511)
RX = R8 (8) = 4075h (16501)
Q Flag = 1 (true)
R0 = 0029h (41, 41)          R8 = 4075h (16501, 16501)
R1 = 0000h (0, 0)          R9 = 4025h (16421, 16421)
R2 = 406Fh (16495, 16495)          RA = 4000h (16384, 16384)
R3 = 0E83h (3715, 3715)          RB = 0000h (0, 0)
R4 = 002Ah (42, 42)          RC = 0000h (0, 0)
R5 = 0048h (72, 72)          RD = 4000h (16384, 16384)
R6 = 0000h (0, 0)          RE = 0000h (0, 0)
R7 = 01FFh (511, 511)          RF = 0000h (0, 0)


Single Step:

01FF:  59        STR R9     (1 bytes)
0200:  C0 01 F9  LBR 01F9     (3 bytes)

Halt Address = 0200h (512)
D = 00h (0, 0)
DF/Carry = 0 (false)
RP = R7 (7) = 0200h (512)
RX = R8 (8) = 4075h (16501)
Q Flag = 1 (true)
R0 = 0029h (41, 41)          R8 = 4075h (16501, 16501)
R1 = 0000h (0, 0)          R9 = 4025h (16421, 16421)
R2 = 406Fh (16495, 16495)          RA = 4000h (16384, 16384)
R3 = 0E83h (3715, 3715)          RB = 0000h (0, 0)
R4 = 002Ah (42, 42)          RC = 0000h (0, 0)
R5 = 0048h (72, 72)          RD = 4000h (16384, 16384)
R6 = 0000h (0, 0)          RE = 0000h (0, 0)
R7 = 0200h (512, 512)          RF = 0000h (0, 0)

Single Step:

0200:  C0 01 F9  LBR 01F9     (3 bytes)
01F9:  43        LDA R3     (1 bytes)

Halt Address = 01F9h (505)
D = 00h (0, 0)
DF/Carry = 0 (false)
RP = R7 (7) = 01F9h (505)
RX = R8 (8) = 4075h (16501)
Q Flag = 1 (true)
R0 = 0029h (41, 41)          R8 = 4075h (16501, 16501)
R1 = 0000h (0, 0)          R9 = 4025h (16421, 16421)
R2 = 406Fh (16495, 16495)          RA = 4000h (16384, 16384)
R3 = 0E83h (3715, 3715)          RB = 0000h (0, 0)
R4 = 002Ah (42, 42)          RC = 0000h (0, 0)
R5 = 0048h (72, 72)          RD = 4000h (16384, 16384)
R6 = 0000h (0, 0)          RE = 0000h (0, 0)
R7 = 01F9h (505, 505)          RF = 0000h (0, 0)

Single Step:

01F9:  43        LDA R3     (1 bytes)
01FA:  32 13     BZ 0113     (2 bytes)

Halt Address = 01FAh (506)
D = 00h (0, 0)
DF/Carry = 0 (false)
RP = R7 (7) = 01FAh (506)
RX = R8 (8) = 4075h (16501)
Q Flag = 1 (true)
R0 = 0029h (41, 41)          R8 = 4075h (16501, 16501)
R1 = 0000h (0, 0)          R9 = 4025h (16421, 16421)
R2 = 406Fh (16495, 16495)          RA = 4000h (16384, 16384)
R3 = 0E84h (3716, 3716)          RB = 0000h (0, 0)
R4 = 002Ah (42, 42)          RC = 0000h (0, 0)
R5 = 0048h (72, 72)          RD = 4000h (16384, 16384)
R6 = 0000h (0, 0)          RE = 0000h (0, 0)
R7 = 01FAh (506, 506)          RF = 0000h (0, 0)

Single Step:

01FA:  32 13     BZ 0113     (2 bytes)
0113:  60        IRX     (1 bytes)

Halt Address = 0113h (275)
D = 00h (0, 0)
DF/Carry = 0 (false)
RP = R7 (7) = 0113h (275)
RX = R8 (8) = 4075h (16501)
Q Flag = 1 (true)
R0 = 0029h (41, 41)          R8 = 4075h (16501, 16501)
R1 = 0000h (0, 0)          R9 = 4025h (16421, 16421)
R2 = 406Fh (16495, 16495)          RA = 4000h (16384, 16384)
R3 = 0E84h (3716, 3716)          RB = 0000h (0, 0)
R4 = 002Ah (42, 42)          RC = 0000h (0, 0)
R5 = 0048h (72, 72)          RD = 4000h (16384, 16384)
R6 = 0000h (0, 0)          RE = 0000h (0, 0)
R7 = 0113h (275, 275)          RF = 0000h (0, 0)

Single Step:

0113:  60        IRX     (1 bytes)
0114:  72        LDXA     (1 bytes)

Halt Address = 0114h (276)
D = 00h (0, 0)
DF/Carry = 0 (false)
RP = R7 (7) = 0114h (276)
RX = R8 (8) = 4076h (16502)
Q Flag = 1 (true)
R0 = 0029h (41, 41)          R8 = 4076h (16502, 16502)
R1 = 0000h (0, 0)          R9 = 4025h (16421, 16421)
R2 = 406Fh (16495, 16495)          RA = 4000h (16384, 16384)
R3 = 0E84h (3716, 3716)          RB = 0000h (0, 0)
R4 = 002Ah (42, 42)          RC = 0000h (0, 0)
R5 = 0048h (72, 72)          RD = 4000h (16384, 16384)
R6 = 0000h (0, 0)          RE = 0000h (0, 0)
R7 = 0114h (276, 276)          RF = 0000h (0, 0)

Single Step:

0114:  72        LDXA     (1 bytes)
0115:  FE        SHL     (1 bytes)

Halt Address = 0115h (277)
D = 00h (0, 0)
DF/Carry = 0 (false)
RP = R7 (7) = 0115h (277)
RX = R8 (8) = 4077h (16503)
Q Flag = 1 (true)
R0 = 0029h (41, 41)          R8 = 4077h (16503, 16503)
R1 = 0000h (0, 0)          R9 = 4025h (16421, 16421)
R2 = 406Fh (16495, 16495)          RA = 4000h (16384, 16384)
R3 = 0E84h (3716, 3716)          RB = 0000h (0, 0)
R4 = 002Ah (42, 42)          RC = 0000h (0, 0)
R5 = 0048h (72, 72)          RD = 4000h (16384, 16384)
R6 = 0000h (0, 0)          RE = 0000h (0, 0)
R7 = 0115h (277, 277)          RF = 0000h (0, 0)

Single Step:

0115:  FE        SHL     (1 bytes)
0116:  F0        LDX     (1 bytes)

Halt Address = 0116h (278)
D = 00h (0, 0)
DF/Carry = 0 (false)
RP = R7 (7) = 0116h (278)
RX = R8 (8) = 4077h (16503)
Q Flag = 1 (true)
R0 = 0029h (41, 41)          R8 = 4077h (16503, 16503)
R1 = 0000h (0, 0)          R9 = 4025h (16421, 16421)
R2 = 406Fh (16495, 16495)          RA = 4000h (16384, 16384)
R3 = 0E84h (3716, 3716)          RB = 0000h (0, 0)
R4 = 002Ah (42, 42)          RC = 0000h (0, 0)
R5 = 0048h (72, 72)          RD = 4000h (16384, 16384)
R6 = 0000h (0, 0)          RE = 0000h (0, 0)
R7 = 0116h (278, 278)          RF = 0000h (0, 0)

Single Step:

0116:  F0        LDX     (1 bytes)
0117:  E2        SEX R2     (1 bytes)

Halt Address = 0117h (279)
D = 00h (0, 0)
DF/Carry = 0 (false)
RP = R7 (7) = 0117h (279)
RX = R8 (8) = 4077h (16503)
Q Flag = 1 (true)
R0 = 0029h (41, 41)          R8 = 4077h (16503, 16503)
R1 = 0000h (0, 0)          R9 = 4025h (16421, 16421)
R2 = 406Fh (16495, 16495)          RA = 4000h (16384, 16384)
R3 = 0E84h (3716, 3716)          RB = 0000h (0, 0)
R4 = 002Ah (42, 42)          RC = 0000h (0, 0)
R5 = 0048h (72, 72)          RD = 4000h (16384, 16384)
R6 = 0000h (0, 0)          RE = 0000h (0, 0)
R7 = 0117h (279, 279)          RF = 0000h (0, 0)

Single Step:

0117:  E2        SEX R2     (1 bytes)
0118:  D3        SEP R3     (1 bytes)

Halt Address = 0118h (280)
D = 00h (0, 0)
DF/Carry = 0 (false)
RP = R7 (7) = 0118h (280)
RX = R2 (2) = 406Fh (16495)
Q Flag = 1 (true)
R0 = 0029h (41, 41)          R8 = 4077h (16503, 16503)
R1 = 0000h (0, 0)          R9 = 4025h (16421, 16421)
R2 = 406Fh (16495, 16495)          RA = 4000h (16384, 16384)
R3 = 0E84h (3716, 3716)          RB = 0000h (0, 0)
R4 = 002Ah (42, 42)          RC = 0000h (0, 0)
R5 = 0048h (72, 72)          RD = 4000h (16384, 16384)
R6 = 0000h (0, 0)          RE = 0000h (0, 0)
R7 = 0118h (280, 280)          RF = 0000h (0, 0)

Single Step:

0118:  D3        SEP R3     (1 bytes)
0E84:  D7        SEP R7     (1 bytes)

Halt Address = 0E84h (3716)
D = 00h (0, 0)
DF/Carry = 0 (false)
RP = R3 (3) = 0E84h (3716)
RX = R2 (2) = 406Fh (16495)
Q Flag = 1 (true)
R0 = 0029h (41, 41)          R8 = 4077h (16503, 16503)
R1 = 0000h (0, 0)          R9 = 4025h (16421, 16421)
R2 = 406Fh (16495, 16495)          RA = 4000h (16384, 16384)
R3 = 0E84h (3716, 3716)          RB = 0000h (0, 0)
R4 = 002Ah (42, 42)          RC = 0000h (0, 0)
R5 = 0048h (72, 72)          RD = 4000h (16384, 16384)
R6 = 0000h (0, 0)          RE = 0000h (0, 0)
R7 = 0119h (281, 281)          RF = 0000h (0, 0)


Single Step:

0E84:  D7        SEP R7     (1 bytes)
0119:  E8        SEX R8     (1 bytes)

Halt Address = 0119h (281)
D = 00h (0, 0)
DF/Carry = 0 (false)
RP = R7 (7) = 0119h (281)
RX = R2 (2) = 406Fh (16495)
Q Flag = 1 (true)
R0 = 0029h (41, 41)          R8 = 4077h (16503, 16503)
R1 = 0000h (0, 0)          R9 = 4025h (16421, 16421)
R2 = 406Fh (16495, 16495)          RA = 4000h (16384, 16384)
R3 = 0E85h (3717, 3717)          RB = 0000h (0, 0)
R4 = 002Ah (42, 42)          RC = 0000h (0, 0)
R5 = 0048h (72, 72)          RD = 4000h (16384, 16384)
R6 = 0000h (0, 0)          RE = 0000h (0, 0)
R7 = 0119h (281, 281)          RF = 0000h (0, 0)

Single Step:

0119:  E8        SEX R8     (1 bytes)
011A:  73        STXD     (1 bytes)

Halt Address = 011Ah (282)
D = 00h (0, 0)
DF/Carry = 0 (false)
RP = R7 (7) = 011Ah (282)
RX = R8 (8) = 4077h (16503)
Q Flag = 1 (true)
R0 = 0029h (41, 41)          R8 = 4077h (16503, 16503)
R1 = 0000h (0, 0)          R9 = 4025h (16421, 16421)
R2 = 406Fh (16495, 16495)          RA = 4000h (16384, 16384)
R3 = 0E85h (3717, 3717)          RB = 0000h (0, 0)
R4 = 002Ah (42, 42)          RC = 0000h (0, 0)
R5 = 0048h (72, 72)          RD = 4000h (16384, 16384)
R6 = 0000h (0, 0)          RE = 0000h (0, 0)
R7 = 011Ah (282, 282)          RF = 0000h (0, 0)

Single Step:

011A:  73        STXD     (1 bytes)
011B:  76        SHRC     (1 bytes)

Halt Address = 011Bh (283)
D = 00h (0, 0)
DF/Carry = 0 (false)
RP = R7 (7) = 011Bh (283)
RX = R8 (8) = 4076h (16502)
Q Flag = 1 (true)
R0 = 0029h (41, 41)          R8 = 4076h (16502, 16502)
R1 = 0000h (0, 0)          R9 = 4025h (16421, 16421)
R2 = 406Fh (16495, 16495)          RA = 4000h (16384, 16384)
R3 = 0E85h (3717, 3717)          RB = 0000h (0, 0)
R4 = 002Ah (42, 42)          RC = 0000h (0, 0)
R5 = 0048h (72, 72)          RD = 4000h (16384, 16384)
R6 = 0000h (0, 0)          RE = 0000h (0, 0)
R7 = 011Bh (283, 283)          RF = 0000h (0, 0)

Single Step:

011B:  76        SHRC     (1 bytes)
011C:  73        STXD     (1 bytes)

Halt Address = 011Ch (284)
D = 00h (0, 0)
DF/Carry = 0 (false)
RP = R7 (7) = 011Ch (284)
RX = R8 (8) = 4076h (16502)
Q Flag = 1 (true)
R0 = 0029h (41, 41)          R8 = 4076h (16502, 16502)
R1 = 0000h (0, 0)          R9 = 4025h (16421, 16421)
R2 = 406Fh (16495, 16495)          RA = 4000h (16384, 16384)
R3 = 0E85h (3717, 3717)          RB = 0000h (0, 0)
R4 = 002Ah (42, 42)          RC = 0000h (0, 0)
R5 = 0048h (72, 72)          RD = 4000h (16384, 16384)
R6 = 0000h (0, 0)          RE = 0000h (0, 0)
R7 = 011Ch (284, 284)          RF = 0000h (0, 0)

Single Step:

011C:  73        STXD     (1 bytes)
011D:  43        LDA R3     (1 bytes)

Halt Address = 011Dh (285)
D = 00h (0, 0)
DF/Carry = 0 (false)
RP = R7 (7) = 011Dh (285)
RX = R8 (8) = 4075h (16501)
Q Flag = 1 (true)
R0 = 0029h (41, 41)          R8 = 4075h (16501, 16501)
R1 = 0000h (0, 0)          R9 = 4025h (16421, 16421)
R2 = 406Fh (16495, 16495)          RA = 4000h (16384, 16384)
R3 = 0E85h (3717, 3717)          RB = 0000h (0, 0)
R4 = 002Ah (42, 42)          RC = 0000h (0, 0)
R5 = 0048h (72, 72)          RD = 4000h (16384, 16384)
R6 = 0000h (0, 0)          RE = 0000h (0, 0)
R7 = 011Dh (285, 285)          RF = 0000h (0, 0)

Single Step:

011D:  43        LDA R3     (1 bytes)
011E:  A7        PLO R7     (1 bytes)

Halt Address = 011Eh (286)
D = 35h (53, 53)
DF/Carry = 0 (false)
RP = R7 (7) = 011Eh (286)
RX = R8 (8) = 4075h (16501)
Q Flag = 1 (true)
R0 = 0029h (41, 41)          R8 = 4075h (16501, 16501)
R1 = 0000h (0, 0)          R9 = 4025h (16421, 16421)
R2 = 406Fh (16495, 16495)          RA = 4000h (16384, 16384)
R3 = 0E86h (3718, 3718)          RB = 0000h (0, 0)
R4 = 002Ah (42, 42)          RC = 0000h (0, 0)
R5 = 0048h (72, 72)          RD = 4000h (16384, 16384)
R6 = 0000h (0, 0)          RE = 0000h (0, 0)
R7 = 011Eh (286, 286)          RF = 0000h (0, 0)

Single Step:

011E:  A7        PLO R7     (1 bytes)
0135:  F8 03     LDI 03     (2 bytes)

Halt Address = 0135h (309)
D = 35h (53, 53)
DF/Carry = 0 (false)
RP = R7 (7) = 0135h (309)
RX = R8 (8) = 4075h (16501)
Q Flag = 1 (true)
R0 = 0029h (41, 41)          R8 = 4075h (16501, 16501)
R1 = 0000h (0, 0)          R9 = 4025h (16421, 16421)
R2 = 406Fh (16495, 16495)          RA = 4000h (16384, 16384)
R3 = 0E86h (3718, 3718)          RB = 0000h (0, 0)
R4 = 002Ah (42, 42)          RC = 0000h (0, 0)
R5 = 0048h (72, 72)          RD = 4000h (16384, 16384)
R6 = 0000h (0, 0)          RE = 0000h (0, 0)
R7 = 0135h (309, 309)          RF = 0000h (0, 0)

Single Step:

0135:  F8 03     LDI 03     (2 bytes)
0137:  C8        NLBR     (1 bytes)

Halt Address = 0137h (311)
D = 03h (3, 3)
DF/Carry = 0 (false)
RP = R7 (7) = 0137h (311)
RX = R8 (8) = 4075h (16501)
Q Flag = 1 (true)
R0 = 0029h (41, 41)          R8 = 4075h (16501, 16501)
R1 = 0000h (0, 0)          R9 = 4025h (16421, 16421)
R2 = 406Fh (16495, 16495)          RA = 4000h (16384, 16384)
R3 = 0E86h (3718, 3718)          RB = 0000h (0, 0)
R4 = 002Ah (42, 42)          RC = 0000h (0, 0)
R5 = 0048h (72, 72)          RD = 4000h (16384, 16384)
R6 = 0000h (0, 0)          RE = 0000h (0, 0)
R7 = 0137h (311, 311)          RF = 0000h (0, 0)

Single Step:

0137:  C8        NLBR     (1 bytes)
013A:  C8        NLBR     (1 bytes)

Halt Address = 013Ah (314)
D = 03h (3, 3)
DF/Carry = 0 (false)
RP = R7 (7) = 013Ah (314)
RX = R8 (8) = 4075h (16501)
Q Flag = 1 (true)
R0 = 0029h (41, 41)          R8 = 4075h (16501, 16501)
R1 = 0000h (0, 0)          R9 = 4025h (16421, 16421)
R2 = 406Fh (16495, 16495)          RA = 4000h (16384, 16384)
R3 = 0E86h (3718, 3718)          RB = 0000h (0, 0)
R4 = 002Ah (42, 42)          RC = 0000h (0, 0)
R5 = 0048h (72, 72)          RD = 4000h (16384, 16384)
R6 = 0000h (0, 0)          RE = 0000h (0, 0)
R7 = 013Ah (314, 314)          RF = 0000h (0, 0)

Single Step:

013A:  C8        NLBR     (1 bytes)
013D:  C8        NLBR     (1 bytes)

Halt Address = 013Dh (317)
D = 03h (3, 3)
DF/Carry = 0 (false)
RP = R7 (7) = 013Dh (317)
RX = R8 (8) = 4075h (16501)
Q Flag = 1 (true)
R0 = 0029h (41, 41)          R8 = 4075h (16501, 16501)
R1 = 0000h (0, 0)          R9 = 4025h (16421, 16421)
R2 = 406Fh (16495, 16495)          RA = 4000h (16384, 16384)
R3 = 0E86h (3718, 3718)          RB = 0000h (0, 0)
R4 = 002Ah (42, 42)          RC = 0000h (0, 0)
R5 = 0048h (72, 72)          RD = 4000h (16384, 16384)
R6 = 0000h (0, 0)          RE = 0000h (0, 0)
R7 = 013Dh (317, 317)          RF = 0000h (0, 0)


Single Step:

013D:  C8        NLBR     (1 bytes)
0140:  C8        NLBR     (1 bytes)

Halt Address = 0140h (320)
D = 03h (3, 3)
DF/Carry = 0 (false)
RP = R7 (7) = 0140h (320)
RX = R8 (8) = 4075h (16501)
Q Flag = 1 (true)
R0 = 0029h (41, 41)          R8 = 4075h (16501, 16501)
R1 = 0000h (0, 0)          R9 = 4025h (16421, 16421)
R2 = 406Fh (16495, 16495)          RA = 4000h (16384, 16384)
R3 = 0E86h (3718, 3718)          RB = 0000h (0, 0)
R4 = 002Ah (42, 42)          RC = 0000h (0, 0)
R5 = 0048h (72, 72)          RD = 4000h (16384, 16384)
R6 = 0000h (0, 0)          RE = 0000h (0, 0)
R7 = 0140h (320, 320)          RF = 0000h (0, 0)

Single Step:

0140:  C8        NLBR     (1 bytes)
0143:  AD        PLO RD     (1 bytes)

Halt Address = 0143h (323)
D = 03h (3, 3)
DF/Carry = 0 (false)
RP = R7 (7) = 0143h (323)
RX = R8 (8) = 4075h (16501)
Q Flag = 1 (true)
R0 = 0029h (41, 41)          R8 = 4075h (16501, 16501)
R1 = 0000h (0, 0)          R9 = 4025h (16421, 16421)
R2 = 406Fh (16495, 16495)          RA = 4000h (16384, 16384)
R3 = 0E86h (3718, 3718)          RB = 0000h (0, 0)
R4 = 002Ah (42, 42)          RC = 0000h (0, 0)
R5 = 0048h (72, 72)          RD = 4000h (16384, 16384)
R6 = 0000h (0, 0)          RE = 0000h (0, 0)
R7 = 0143h (323, 323)          RF = 0000h (0, 0)

Single Step:

0143:  AD        PLO RD     (1 bytes)
0144:  43        LDA R3     (1 bytes)

Halt Address = 0144h (324)
D = 03h (3, 3)
DF/Carry = 0 (false)
RP = R7 (7) = 0144h (324)
RX = R8 (8) = 4075h (16501)
Q Flag = 1 (true)
R0 = 0029h (41, 41)          R8 = 4075h (16501, 16501)
R1 = 0000h (0, 0)          R9 = 4025h (16421, 16421)
R2 = 406Fh (16495, 16495)          RA = 4000h (16384, 16384)
R3 = 0E86h (3718, 3718)          RB = 0000h (0, 0)
R4 = 002Ah (42, 42)          RC = 0000h (0, 0)
R5 = 0048h (72, 72)          RD = 4003h (16387, 16387)
R6 = 0000h (0, 0)          RE = 0000h (0, 0)
R7 = 0144h (324, 324)          RF = 0000h (0, 0)

Single Step:

0144:  43        LDA R3     (1 bytes)
0145:  FB FF     XRI FF     (2 bytes)

Halt Address = 0145h (325)
D = F7h (247, -9)
DF/Carry = 0 (false)
RP = R7 (7) = 0145h (325)
RX = R8 (8) = 4075h (16501)
Q Flag = 1 (true)
R0 = 0029h (41, 41)          R8 = 4075h (16501, 16501)
R1 = 0000h (0, 0)          R9 = 4025h (16421, 16421)
R2 = 406Fh (16495, 16495)          RA = 4000h (16384, 16384)
R3 = 0E87h (3719, 3719)          RB = 0000h (0, 0)
R4 = 002Ah (42, 42)          RC = 0000h (0, 0)
R5 = 0048h (72, 72)          RD = 4003h (16387, 16387)
R6 = 0000h (0, 0)          RE = 0000h (0, 0)
R7 = 0145h (325, 325)          RF = 0000h (0, 0)

Single Step:

0145:  FB FF     XRI FF     (2 bytes)
0147:  58        STR R8     (1 bytes)

Halt Address = 0147h (327)
D = 08h (8, 8)
DF/Carry = 0 (false)
RP = R7 (7) = 0147h (327)
RX = R8 (8) = 4075h (16501)
Q Flag = 1 (true)
R0 = 0029h (41, 41)          R8 = 4075h (16501, 16501)
R1 = 0000h (0, 0)          R9 = 4025h (16421, 16421)
R2 = 406Fh (16495, 16495)          RA = 4000h (16384, 16384)
R3 = 0E87h (3719, 3719)          RB = 0000h (0, 0)
R4 = 002Ah (42, 42)          RC = 0000h (0, 0)
R5 = 0048h (72, 72)          RD = 4003h (16387, 16387)
R6 = 0000h (0, 0)          RE = 0000h (0, 0)
R7 = 0147h (327, 327)          RF = 0000h (0, 0)

Single Step:

0147:  58        STR R8     (1 bytes)
0148:  0D        LDN RD     (1 bytes)

Halt Address = 0148h (328)
D = 08h (8, 8)
DF/Carry = 0 (false)
RP = R7 (7) = 0148h (328)
RX = R8 (8) = 4075h (16501)
Q Flag = 1 (true)
R0 = 0029h (41, 41)          R8 = 4075h (16501, 16501)
R1 = 0000h (0, 0)          R9 = 4025h (16421, 16421)
R2 = 406Fh (16495, 16495)          RA = 4000h (16384, 16384)
R3 = 0E87h (3719, 3719)          RB = 0000h (0, 0)
R4 = 002Ah (42, 42)          RC = 0000h (0, 0)
R5 = 0048h (72, 72)          RD = 4003h (16387, 16387)
R6 = 0000h (0, 0)          RE = 0000h (0, 0)
R7 = 0148h (328, 328)          RF = 0000h (0, 0)

Single Step:

0148:  0D        LDN RD     (1 bytes)
0149:  F2        AND     (1 bytes)

Halt Address = 0149h (329)
D = 00h (0, 0)
DF/Carry = 0 (false)
RP = R7 (7) = 0149h (329)
RX = R8 (8) = 4075h (16501)
Q Flag = 1 (true)
R0 = 0029h (41, 41)          R8 = 4075h (16501, 16501)
R1 = 0000h (0, 0)          R9 = 4025h (16421, 16421)
R2 = 406Fh (16495, 16495)          RA = 4000h (16384, 16384)
R3 = 0E87h (3719, 3719)          RB = 0000h (0, 0)
R4 = 002Ah (42, 42)          RC = 0000h (0, 0)
R5 = 0048h (72, 72)          RD = 4003h (16387, 16387)
R6 = 0000h (0, 0)          RE = 0000h (0, 0)
R7 = 0149h (329, 329)          RF = 0000h (0, 0)

Single Step:

0149:  F2        AND     (1 bytes)
014A:  30 32     BR 0132     (2 bytes)

Halt Address = 014Ah (330)
D = 00h (0, 0)
DF/Carry = 0 (false)
RP = R7 (7) = 014Ah (330)
RX = R8 (8) = 4075h (16501)
Q Flag = 1 (true)
R0 = 0029h (41, 41)          R8 = 4075h (16501, 16501)
R1 = 0000h (0, 0)          R9 = 4025h (16421, 16421)
R2 = 406Fh (16495, 16495)          RA = 4000h (16384, 16384)
R3 = 0E87h (3719, 3719)          RB = 0000h (0, 0)
R4 = 002Ah (42, 42)          RC = 0000h (0, 0)
R5 = 0048h (72, 72)          RD = 4003h (16387, 16387)
R6 = 0000h (0, 0)          RE = 0000h (0, 0)
R7 = 014Ah (330, 330)          RF = 0000h (0, 0)

Single Step:

014A:  30 32     BR 0132     (2 bytes)
0132:  5D        STR RD     (1 bytes)

Halt Address = 0132h (306)
D = 00h (0, 0)
DF/Carry = 0 (false)
RP = R7 (7) = 0132h (306)
RX = R8 (8) = 4075h (16501)
Q Flag = 1 (true)
R0 = 0029h (41, 41)          R8 = 4075h (16501, 16501)
R1 = 0000h (0, 0)          R9 = 4025h (16421, 16421)
R2 = 406Fh (16495, 16495)          RA = 4000h (16384, 16384)
R3 = 0E87h (3719, 3719)          RB = 0000h (0, 0)
R4 = 002Ah (42, 42)          RC = 0000h (0, 0)
R5 = 0048h (72, 72)          RD = 4003h (16387, 16387)
R6 = 0000h (0, 0)          RE = 0000h (0, 0)
R7 = 0132h (306, 306)          RF = 0000h (0, 0)

Single Step:

0132:  5D        STR RD     (1 bytes)
0133:  30 13     BR 0113     (2 bytes)

Halt Address = 0133h (307)
D = 00h (0, 0)
DF/Carry = 0 (false)
RP = R7 (7) = 0133h (307)
RX = R8 (8) = 4075h (16501)
Q Flag = 1 (true)
R0 = 0029h (41, 41)          R8 = 4075h (16501, 16501)
R1 = 0000h (0, 0)          R9 = 4025h (16421, 16421)
R2 = 406Fh (16495, 16495)          RA = 4000h (16384, 16384)
R3 = 0E87h (3719, 3719)          RB = 0000h (0, 0)
R4 = 002Ah (42, 42)          RC = 0000h (0, 0)
R5 = 0048h (72, 72)          RD = 4003h (16387, 16387)
R6 = 0000h (0, 0)          RE = 0000h (0, 0)
R7 = 0133h (307, 307)          RF = 0000h (0, 0)


Single Step:

0133:  30 13     BR 0113     (2 bytes)
0113:  60        IRX     (1 bytes)

Halt Address = 0113h (275)
D = 00h (0, 0)
DF/Carry = 0 (false)
RP = R7 (7) = 0113h (275)
RX = R8 (8) = 4075h (16501)
Q Flag = 1 (true)
R0 = 0029h (41, 41)          R8 = 4075h (16501, 16501)
R1 = 0000h (0, 0)          R9 = 4025h (16421, 16421)
R2 = 406Fh (16495, 16495)          RA = 4000h (16384, 16384)
R3 = 0E87h (3719, 3719)          RB = 0000h (0, 0)
R4 = 002Ah (42, 42)          RC = 0000h (0, 0)
R5 = 0048h (72, 72)          RD = 4003h (16387, 16387)
R6 = 0000h (0, 0)          RE = 0000h (0, 0)
R7 = 0113h (275, 275)          RF = 0000h (0, 0)

Single Step:

0113:  60        IRX     (1 bytes)
0114:  72        LDXA     (1 bytes)

Halt Address = 0114h (276)
D = 00h (0, 0)
DF/Carry = 0 (false)
RP = R7 (7) = 0114h (276)
RX = R8 (8) = 4076h (16502)
Q Flag = 1 (true)
R0 = 0029h (41, 41)          R8 = 4076h (16502, 16502)
R1 = 0000h (0, 0)          R9 = 4025h (16421, 16421)
R2 = 406Fh (16495, 16495)          RA = 4000h (16384, 16384)
R3 = 0E87h (3719, 3719)          RB = 0000h (0, 0)
R4 = 002Ah (42, 42)          RC = 0000h (0, 0)
R5 = 0048h (72, 72)          RD = 4003h (16387, 16387)
R6 = 0000h (0, 0)          RE = 0000h (0, 0)
R7 = 0114h (276, 276)          RF = 0000h (0, 0)

Single Step:

0114:  72        LDXA     (1 bytes)
0115:  FE        SHL     (1 bytes)

Halt Address = 0115h (277)
D = 00h (0, 0)
DF/Carry = 0 (false)
RP = R7 (7) = 0115h (277)
RX = R8 (8) = 4077h (16503)
Q Flag = 1 (true)
R0 = 0029h (41, 41)          R8 = 4077h (16503, 16503)
R1 = 0000h (0, 0)          R9 = 4025h (16421, 16421)
R2 = 406Fh (16495, 16495)          RA = 4000h (16384, 16384)
R3 = 0E87h (3719, 3719)          RB = 0000h (0, 0)
R4 = 002Ah (42, 42)          RC = 0000h (0, 0)
R5 = 0048h (72, 72)          RD = 4003h (16387, 16387)
R6 = 0000h (0, 0)          RE = 0000h (0, 0)
R7 = 0115h (277, 277)          RF = 0000h (0, 0)

Single Step:

0115:  FE        SHL     (1 bytes)
0116:  F0        LDX     (1 bytes)

Halt Address = 0116h (278)
D = 00h (0, 0)
DF/Carry = 0 (false)
RP = R7 (7) = 0116h (278)
RX = R8 (8) = 4077h (16503)
Q Flag = 1 (true)
R0 = 0029h (41, 41)          R8 = 4077h (16503, 16503)
R1 = 0000h (0, 0)          R9 = 4025h (16421, 16421)
R2 = 406Fh (16495, 16495)          RA = 4000h (16384, 16384)
R3 = 0E87h (3719, 3719)          RB = 0000h (0, 0)
R4 = 002Ah (42, 42)          RC = 0000h (0, 0)
R5 = 0048h (72, 72)          RD = 4003h (16387, 16387)
R6 = 0000h (0, 0)          RE = 0000h (0, 0)
R7 = 0116h (278, 278)          RF = 0000h (0, 0)

Single Step:

0116:  F0        LDX     (1 bytes)
0117:  E2        SEX R2     (1 bytes)

Halt Address = 0117h (279)
D = 00h (0, 0)
DF/Carry = 0 (false)
RP = R7 (7) = 0117h (279)
RX = R8 (8) = 4077h (16503)
Q Flag = 1 (true)
R0 = 0029h (41, 41)          R8 = 4077h (16503, 16503)
R1 = 0000h (0, 0)          R9 = 4025h (16421, 16421)
R2 = 406Fh (16495, 16495)          RA = 4000h (16384, 16384)
R3 = 0E87h (3719, 3719)          RB = 0000h (0, 0)
R4 = 002Ah (42, 42)          RC = 0000h (0, 0)
R5 = 0048h (72, 72)          RD = 4003h (16387, 16387)
R6 = 0000h (0, 0)          RE = 0000h (0, 0)
R7 = 0117h (279, 279)          RF = 0000h (0, 0)

Single Step:

0117:  E2        SEX R2     (1 bytes)
0118:  D3        SEP R3     (1 bytes)

Halt Address = 0118h (280)
D = 00h (0, 0)
DF/Carry = 0 (false)
RP = R7 (7) = 0118h (280)
RX = R2 (2) = 406Fh (16495)
Q Flag = 1 (true)
R0 = 0029h (41, 41)          R8 = 4077h (16503, 16503)
R1 = 0000h (0, 0)          R9 = 4025h (16421, 16421)
R2 = 406Fh (16495, 16495)          RA = 4000h (16384, 16384)
R3 = 0E87h (3719, 3719)          RB = 0000h (0, 0)
R4 = 002Ah (42, 42)          RC = 0000h (0, 0)
R5 = 0048h (72, 72)          RD = 4003h (16387, 16387)
R6 = 0000h (0, 0)          RE = 0000h (0, 0)
R7 = 0118h (280, 280)          RF = 0000h (0, 0)

Single Step:

0118:  D3        SEP R3     (1 bytes)
0E87:  D7        SEP R7     (1 bytes)

Halt Address = 0E87h (3719)
D = 00h (0, 0)
DF/Carry = 0 (false)
RP = R3 (3) = 0E87h (3719)
RX = R2 (2) = 406Fh (16495)
Q Flag = 1 (true)
R0 = 0029h (41, 41)          R8 = 4077h (16503, 16503)
R1 = 0000h (0, 0)          R9 = 4025h (16421, 16421)
R2 = 406Fh (16495, 16495)          RA = 4000h (16384, 16384)
R3 = 0E87h (3719, 3719)          RB = 0000h (0, 0)
R4 = 002Ah (42, 42)          RC = 0000h (0, 0)
R5 = 0048h (72, 72)          RD = 4003h (16387, 16387)
R6 = 0000h (0, 0)          RE = 0000h (0, 0)
R7 = 0119h (281, 281)          RF = 0000h (0, 0)

Single Step:

0E87:  D7        SEP R7     (1 bytes)
0119:  E8        SEX R8     (1 bytes)

Halt Address = 0119h (281)
D = 00h (0, 0)
DF/Carry = 0 (false)
RP = R7 (7) = 0119h (281)
RX = R2 (2) = 406Fh (16495)
Q Flag = 1 (true)
R0 = 0029h (41, 41)          R8 = 4077h (16503, 16503)
R1 = 0000h (0, 0)          R9 = 4025h (16421, 16421)
R2 = 406Fh (16495, 16495)          RA = 4000h (16384, 16384)
R3 = 0E88h (3720, 3720)          RB = 0000h (0, 0)
R4 = 002Ah (42, 42)          RC = 0000h (0, 0)
R5 = 0048h (72, 72)          RD = 4003h (16387, 16387)
R6 = 0000h (0, 0)          RE = 0000h (0, 0)
R7 = 0119h (281, 281)          RF = 0000h (0, 0)

Single Step:

0119:  E8        SEX R8     (1 bytes)
011A:  73        STXD     (1 bytes)

Halt Address = 011Ah (282)
D = 00h (0, 0)
DF/Carry = 0 (false)
RP = R7 (7) = 011Ah (282)
RX = R8 (8) = 4077h (16503)
Q Flag = 1 (true)
R0 = 0029h (41, 41)          R8 = 4077h (16503, 16503)
R1 = 0000h (0, 0)          R9 = 4025h (16421, 16421)
R2 = 406Fh (16495, 16495)          RA = 4000h (16384, 16384)
R3 = 0E88h (3720, 3720)          RB = 0000h (0, 0)
R4 = 002Ah (42, 42)          RC = 0000h (0, 0)
R5 = 0048h (72, 72)          RD = 4003h (16387, 16387)
R6 = 0000h (0, 0)          RE = 0000h (0, 0)
R7 = 011Ah (282, 282)          RF = 0000h (0, 0)

Single Step:

011A:  73        STXD     (1 bytes)
011B:  76        SHRC     (1 bytes)

Halt Address = 011Bh (283)
D = 00h (0, 0)
DF/Carry = 0 (false)
RP = R7 (7) = 011Bh (283)
RX = R8 (8) = 4076h (16502)
Q Flag = 1 (true)
R0 = 0029h (41, 41)          R8 = 4076h (16502, 16502)
R1 = 0000h (0, 0)          R9 = 4025h (16421, 16421)
R2 = 406Fh (16495, 16495)          RA = 4000h (16384, 16384)
R3 = 0E88h (3720, 3720)          RB = 0000h (0, 0)
R4 = 002Ah (42, 42)          RC = 0000h (0, 0)
R5 = 0048h (72, 72)          RD = 4003h (16387, 16387)
R6 = 0000h (0, 0)          RE = 0000h (0, 0)
R7 = 011Bh (283, 283)          RF = 0000h (0, 0)


Single Step:

011B:  76        SHRC     (1 bytes)
011C:  73        STXD     (1 bytes)

Halt Address = 011Ch (284)
D = 00h (0, 0)
DF/Carry = 0 (false)
RP = R7 (7) = 011Ch (284)
RX = R8 (8) = 4076h (16502)
Q Flag = 1 (true)
R0 = 0029h (41, 41)          R8 = 4076h (16502, 16502)
R1 = 0000h (0, 0)          R9 = 4025h (16421, 16421)
R2 = 406Fh (16495, 16495)          RA = 4000h (16384, 16384)
R3 = 0E88h (3720, 3720)          RB = 0000h (0, 0)
R4 = 002Ah (42, 42)          RC = 0000h (0, 0)
R5 = 0048h (72, 72)          RD = 4003h (16387, 16387)
R6 = 0000h (0, 0)          RE = 0000h (0, 0)
R7 = 011Ch (284, 284)          RF = 0000h (0, 0)

Single Step:

011C:  73        STXD     (1 bytes)
011D:  43        LDA R3     (1 bytes)

Halt Address = 011Dh (285)
D = 00h (0, 0)
DF/Carry = 0 (false)
RP = R7 (7) = 011Dh (285)
RX = R8 (8) = 4075h (16501)
Q Flag = 1 (true)
R0 = 0029h (41, 41)          R8 = 4075h (16501, 16501)
R1 = 0000h (0, 0)          R9 = 4025h (16421, 16421)
R2 = 406Fh (16495, 16495)          RA = 4000h (16384, 16384)
R3 = 0E88h (3720, 3720)          RB = 0000h (0, 0)
R4 = 002Ah (42, 42)          RC = 0000h (0, 0)
R5 = 0048h (72, 72)          RD = 4003h (16387, 16387)
R6 = 0000h (0, 0)          RE = 0000h (0, 0)
R7 = 011Dh (285, 285)          RF = 0000h (0, 0)

Single Step:

011D:  43        LDA R3     (1 bytes)
011E:  A7        PLO R7     (1 bytes)

Halt Address = 011Eh (286)
D = 38h (56, 56)
DF/Carry = 0 (false)
RP = R7 (7) = 011Eh (286)
RX = R8 (8) = 4075h (16501)
Q Flag = 1 (true)
R0 = 0029h (41, 41)          R8 = 4075h (16501, 16501)
R1 = 0000h (0, 0)          R9 = 4025h (16421, 16421)
R2 = 406Fh (16495, 16495)          RA = 4000h (16384, 16384)
R3 = 0E89h (3721, 3721)          RB = 0000h (0, 0)
R4 = 002Ah (42, 42)          RC = 0000h (0, 0)
R5 = 0048h (72, 72)          RD = 4003h (16387, 16387)
R6 = 0000h (0, 0)          RE = 0000h (0, 0)
R7 = 011Eh (286, 286)          RF = 0000h (0, 0)

Single Step:

011E:  A7        PLO R7     (1 bytes)
0138:  F8 04     LDI 04     (2 bytes)

Halt Address = 0138h (312)
D = 38h (56, 56)
DF/Carry = 0 (false)
RP = R7 (7) = 0138h (312)
RX = R8 (8) = 4075h (16501)
Q Flag = 1 (true)
R0 = 0029h (41, 41)          R8 = 4075h (16501, 16501)
R1 = 0000h (0, 0)          R9 = 4025h (16421, 16421)
R2 = 406Fh (16495, 16495)          RA = 4000h (16384, 16384)
R3 = 0E89h (3721, 3721)          RB = 0000h (0, 0)
R4 = 002Ah (42, 42)          RC = 0000h (0, 0)
R5 = 0048h (72, 72)          RD = 4003h (16387, 16387)
R6 = 0000h (0, 0)          RE = 0000h (0, 0)
R7 = 0138h (312, 312)          RF = 0000h (0, 0)

Single Step:

0138:  F8 04     LDI 04     (2 bytes)
013A:  C8        NLBR     (1 bytes)

Halt Address = 013Ah (314)
D = 04h (4, 4)
DF/Carry = 0 (false)
RP = R7 (7) = 013Ah (314)
RX = R8 (8) = 4075h (16501)
Q Flag = 1 (true)
R0 = 0029h (41, 41)          R8 = 4075h (16501, 16501)
R1 = 0000h (0, 0)          R9 = 4025h (16421, 16421)
R2 = 406Fh (16495, 16495)          RA = 4000h (16384, 16384)
R3 = 0E89h (3721, 3721)          RB = 0000h (0, 0)
R4 = 002Ah (42, 42)          RC = 0000h (0, 0)
R5 = 0048h (72, 72)          RD = 4003h (16387, 16387)
R6 = 0000h (0, 0)          RE = 0000h (0, 0)
R7 = 013Ah (314, 314)          RF = 0000h (0, 0)

Single Step:

013A:  C8        NLBR     (1 bytes)
013D:  C8        NLBR     (1 bytes)

Halt Address = 013Dh (317)
D = 04h (4, 4)
DF/Carry = 0 (false)
RP = R7 (7) = 013Dh (317)
RX = R8 (8) = 4075h (16501)
Q Flag = 1 (true)
R0 = 0029h (41, 41)          R8 = 4075h (16501, 16501)
R1 = 0000h (0, 0)          R9 = 4025h (16421, 16421)
R2 = 406Fh (16495, 16495)          RA = 4000h (16384, 16384)
R3 = 0E89h (3721, 3721)          RB = 0000h (0, 0)
R4 = 002Ah (42, 42)          RC = 0000h (0, 0)
R5 = 0048h (72, 72)          RD = 4003h (16387, 16387)
R6 = 0000h (0, 0)          RE = 0000h (0, 0)
R7 = 013Dh (317, 317)          RF = 0000h (0, 0)

Single Step:

013D:  C8        NLBR     (1 bytes)
0140:  C8        NLBR     (1 bytes)

Halt Address = 0140h (320)
D = 04h (4, 4)
DF/Carry = 0 (false)
RP = R7 (7) = 0140h (320)
RX = R8 (8) = 4075h (16501)
Q Flag = 1 (true)
R0 = 0029h (41, 41)          R8 = 4075h (16501, 16501)
R1 = 0000h (0, 0)          R9 = 4025h (16421, 16421)
R2 = 406Fh (16495, 16495)          RA = 4000h (16384, 16384)
R3 = 0E89h (3721, 3721)          RB = 0000h (0, 0)
R4 = 002Ah (42, 42)          RC = 0000h (0, 0)
R5 = 0048h (72, 72)          RD = 4003h (16387, 16387)
R6 = 0000h (0, 0)          RE = 0000h (0, 0)
R7 = 0140h (320, 320)          RF = 0000h (0, 0)

Single Step:

0140:  C8        NLBR     (1 bytes)
0143:  AD        PLO RD     (1 bytes)

Halt Address = 0143h (323)
D = 04h (4, 4)
DF/Carry = 0 (false)
RP = R7 (7) = 0143h (323)
RX = R8 (8) = 4075h (16501)
Q Flag = 1 (true)
R0 = 0029h (41, 41)          R8 = 4075h (16501, 16501)
R1 = 0000h (0, 0)          R9 = 4025h (16421, 16421)
R2 = 406Fh (16495, 16495)          RA = 4000h (16384, 16384)
R3 = 0E89h (3721, 3721)          RB = 0000h (0, 0)
R4 = 002Ah (42, 42)          RC = 0000h (0, 0)
R5 = 0048h (72, 72)          RD = 4003h (16387, 16387)
R6 = 0000h (0, 0)          RE = 0000h (0, 0)
R7 = 0143h (323, 323)          RF = 0000h (0, 0)

Single Step:

0143:  AD        PLO RD     (1 bytes)
0144:  43        LDA R3     (1 bytes)

Halt Address = 0144h (324)
D = 04h (4, 4)
DF/Carry = 0 (false)
RP = R7 (7) = 0144h (324)
RX = R8 (8) = 4075h (16501)
Q Flag = 1 (true)
R0 = 0029h (41, 41)          R8 = 4075h (16501, 16501)
R1 = 0000h (0, 0)          R9 = 4025h (16421, 16421)
R2 = 406Fh (16495, 16495)          RA = 4000h (16384, 16384)
R3 = 0E89h (3721, 3721)          RB = 0000h (0, 0)
R4 = 002Ah (42, 42)          RC = 0000h (0, 0)
R5 = 0048h (72, 72)          RD = 4004h (16388, 16388)
R6 = 0000h (0, 0)          RE = 0000h (0, 0)
R7 = 0144h (324, 324)          RF = 0000h (0, 0)

Single Step:

0144:  43        LDA R3     (1 bytes)
0145:  FB FF     XRI FF     (2 bytes)

Halt Address = 0145h (325)
D = FFh (255, -1)
DF/Carry = 0 (false)
RP = R7 (7) = 0145h (325)
RX = R8 (8) = 4075h (16501)
Q Flag = 1 (true)
R0 = 0029h (41, 41)          R8 = 4075h (16501, 16501)
R1 = 0000h (0, 0)          R9 = 4025h (16421, 16421)
R2 = 406Fh (16495, 16495)          RA = 4000h (16384, 16384)
R3 = 0E8Ah (3722, 3722)          RB = 0000h (0, 0)
R4 = 002Ah (42, 42)          RC = 0000h (0, 0)
R5 = 0048h (72, 72)          RD = 4004h (16388, 16388)
R6 = 0000h (0, 0)          RE = 0000h (0, 0)
R7 = 0145h (325, 325)          RF = 0000h (0, 0)


Single Step:

0145:  FB FF     XRI FF     (2 bytes)
0147:  58        STR R8     (1 bytes)

Halt Address = 0147h (327)
D = 00h (0, 0)
DF/Carry = 0 (false)
RP = R7 (7) = 0147h (327)
RX = R8 (8) = 4075h (16501)
Q Flag = 1 (true)
R0 = 0029h (41, 41)          R8 = 4075h (16501, 16501)
R1 = 0000h (0, 0)          R9 = 4025h (16421, 16421)
R2 = 406Fh (16495, 16495)          RA = 4000h (16384, 16384)
R3 = 0E8Ah (3722, 3722)          RB = 0000h (0, 0)
R4 = 002Ah (42, 42)          RC = 0000h (0, 0)
R5 = 0048h (72, 72)          RD = 4004h (16388, 16388)
R6 = 0000h (0, 0)          RE = 0000h (0, 0)
R7 = 0147h (327, 327)          RF = 0000h (0, 0)

Single Step:

0147:  58        STR R8     (1 bytes)
0148:  0D        LDN RD     (1 bytes)

Halt Address = 0148h (328)
D = 00h (0, 0)
DF/Carry = 0 (false)
RP = R7 (7) = 0148h (328)
RX = R8 (8) = 4075h (16501)
Q Flag = 1 (true)
R0 = 0029h (41, 41)          R8 = 4075h (16501, 16501)
R1 = 0000h (0, 0)          R9 = 4025h (16421, 16421)
R2 = 406Fh (16495, 16495)          RA = 4000h (16384, 16384)
R3 = 0E8Ah (3722, 3722)          RB = 0000h (0, 0)
R4 = 002Ah (42, 42)          RC = 0000h (0, 0)
R5 = 0048h (72, 72)          RD = 4004h (16388, 16388)
R6 = 0000h (0, 0)          RE = 0000h (0, 0)
R7 = 0148h (328, 328)          RF = 0000h (0, 0)

Single Step:

0148:  0D        LDN RD     (1 bytes)
0149:  F2        AND     (1 bytes)

Halt Address = 0149h (329)
D = 00h (0, 0)
DF/Carry = 0 (false)
RP = R7 (7) = 0149h (329)
RX = R8 (8) = 4075h (16501)
Q Flag = 1 (true)
R0 = 0029h (41, 41)          R8 = 4075h (16501, 16501)
R1 = 0000h (0, 0)          R9 = 4025h (16421, 16421)
R2 = 406Fh (16495, 16495)          RA = 4000h (16384, 16384)
R3 = 0E8Ah (3722, 3722)          RB = 0000h (0, 0)
R4 = 002Ah (42, 42)          RC = 0000h (0, 0)
R5 = 0048h (72, 72)          RD = 4004h (16388, 16388)
R6 = 0000h (0, 0)          RE = 0000h (0, 0)
R7 = 0149h (329, 329)          RF = 0000h (0, 0)

Single Step:

0149:  F2        AND     (1 bytes)
014A:  30 32     BR 0132     (2 bytes)

Halt Address = 014Ah (330)
D = 00h (0, 0)
DF/Carry = 0 (false)
RP = R7 (7) = 014Ah (330)
RX = R8 (8) = 4075h (16501)
Q Flag = 1 (true)
R0 = 0029h (41, 41)          R8 = 4075h (16501, 16501)
R1 = 0000h (0, 0)          R9 = 4025h (16421, 16421)
R2 = 406Fh (16495, 16495)          RA = 4000h (16384, 16384)
R3 = 0E8Ah (3722, 3722)          RB = 0000h (0, 0)
R4 = 002Ah (42, 42)          RC = 0000h (0, 0)
R5 = 0048h (72, 72)          RD = 4004h (16388, 16388)
R6 = 0000h (0, 0)          RE = 0000h (0, 0)
R7 = 014Ah (330, 330)          RF = 0000h (0, 0)

Single Step:

014A:  30 32     BR 0132     (2 bytes)
0132:  5D        STR RD     (1 bytes)

Halt Address = 0132h (306)
D = 00h (0, 0)
DF/Carry = 0 (false)
RP = R7 (7) = 0132h (306)
RX = R8 (8) = 4075h (16501)
Q Flag = 1 (true)
R0 = 0029h (41, 41)          R8 = 4075h (16501, 16501)
R1 = 0000h (0, 0)          R9 = 4025h (16421, 16421)
R2 = 406Fh (16495, 16495)          RA = 4000h (16384, 16384)
R3 = 0E8Ah (3722, 3722)          RB = 0000h (0, 0)
R4 = 002Ah (42, 42)          RC = 0000h (0, 0)
R5 = 0048h (72, 72)          RD = 4004h (16388, 16388)
R6 = 0000h (0, 0)          RE = 0000h (0, 0)
R7 = 0132h (306, 306)          RF = 0000h (0, 0)

Single Step:

0132:  5D        STR RD     (1 bytes)
0133:  30 13     BR 0113     (2 bytes)

Halt Address = 0133h (307)
D = 00h (0, 0)
DF/Carry = 0 (false)
RP = R7 (7) = 0133h (307)
RX = R8 (8) = 4075h (16501)
Q Flag = 1 (true)
R0 = 0029h (41, 41)          R8 = 4075h (16501, 16501)
R1 = 0000h (0, 0)          R9 = 4025h (16421, 16421)
R2 = 406Fh (16495, 16495)          RA = 4000h (16384, 16384)
R3 = 0E8Ah (3722, 3722)          RB = 0000h (0, 0)
R4 = 002Ah (42, 42)          RC = 0000h (0, 0)
R5 = 0048h (72, 72)          RD = 4004h (16388, 16388)
R6 = 0000h (0, 0)          RE = 0000h (0, 0)
R7 = 0133h (307, 307)          RF = 0000h (0, 0)

Single Step:

0133:  30 13     BR 0113     (2 bytes)
0113:  60        IRX     (1 bytes)

Halt Address = 0113h (275)
D = 00h (0, 0)
DF/Carry = 0 (false)
RP = R7 (7) = 0113h (275)
RX = R8 (8) = 4075h (16501)
Q Flag = 1 (true)
R0 = 0029h (41, 41)          R8 = 4075h (16501, 16501)
R1 = 0000h (0, 0)          R9 = 4025h (16421, 16421)
R2 = 406Fh (16495, 16495)          RA = 4000h (16384, 16384)
R3 = 0E8Ah (3722, 3722)          RB = 0000h (0, 0)
R4 = 002Ah (42, 42)          RC = 0000h (0, 0)
R5 = 0048h (72, 72)          RD = 4004h (16388, 16388)
R6 = 0000h (0, 0)          RE = 0000h (0, 0)
R7 = 0113h (275, 275)          RF = 0000h (0, 0)

Single Step:

0113:  60        IRX     (1 bytes)
0114:  72        LDXA     (1 bytes)

Halt Address = 0114h (276)
D = 00h (0, 0)
DF/Carry = 0 (false)
RP = R7 (7) = 0114h (276)
RX = R8 (8) = 4076h (16502)
Q Flag = 1 (true)
R0 = 0029h (41, 41)          R8 = 4076h (16502, 16502)
R1 = 0000h (0, 0)          R9 = 4025h (16421, 16421)
R2 = 406Fh (16495, 16495)          RA = 4000h (16384, 16384)
R3 = 0E8Ah (3722, 3722)          RB = 0000h (0, 0)
R4 = 002Ah (42, 42)          RC = 0000h (0, 0)
R5 = 0048h (72, 72)          RD = 4004h (16388, 16388)
R6 = 0000h (0, 0)          RE = 0000h (0, 0)
R7 = 0114h (276, 276)          RF = 0000h (0, 0)

Single Step:

0114:  72        LDXA     (1 bytes)
0115:  FE        SHL     (1 bytes)

Halt Address = 0115h (277)
D = 00h (0, 0)
DF/Carry = 0 (false)
RP = R7 (7) = 0115h (277)
RX = R8 (8) = 4077h (16503)
Q Flag = 1 (true)
R0 = 0029h (41, 41)          R8 = 4077h (16503, 16503)
R1 = 0000h (0, 0)          R9 = 4025h (16421, 16421)
R2 = 406Fh (16495, 16495)          RA = 4000h (16384, 16384)
R3 = 0E8Ah (3722, 3722)          RB = 0000h (0, 0)
R4 = 002Ah (42, 42)          RC = 0000h (0, 0)
R5 = 0048h (72, 72)          RD = 4004h (16388, 16388)
R6 = 0000h (0, 0)          RE = 0000h (0, 0)
R7 = 0115h (277, 277)          RF = 0000h (0, 0)

Single Step:

0115:  FE        SHL     (1 bytes)
0116:  F0        LDX     (1 bytes)

Halt Address = 0116h (278)
D = 00h (0, 0)
DF/Carry = 0 (false)
RP = R7 (7) = 0116h (278)
RX = R8 (8) = 4077h (16503)
Q Flag = 1 (true)
R0 = 0029h (41, 41)          R8 = 4077h (16503, 16503)
R1 = 0000h (0, 0)          R9 = 4025h (16421, 16421)
R2 = 406Fh (16495, 16495)          RA = 4000h (16384, 16384)
R3 = 0E8Ah (3722, 3722)          RB = 0000h (0, 0)
R4 = 002Ah (42, 42)          RC = 0000h (0, 0)
R5 = 0048h (72, 72)          RD = 4004h (16388, 16388)
R6 = 0000h (0, 0)          RE = 0000h (0, 0)
R7 = 0116h (278, 278)          RF = 0000h (0, 0)


Single Step:

0116:  F0        LDX     (1 bytes)
0117:  E2        SEX R2     (1 bytes)

Halt Address = 0117h (279)
D = 00h (0, 0)
DF/Carry = 0 (false)
RP = R7 (7) = 0117h (279)
RX = R8 (8) = 4077h (16503)
Q Flag = 1 (true)
R0 = 0029h (41, 41)          R8 = 4077h (16503, 16503)
R1 = 0000h (0, 0)          R9 = 4025h (16421, 16421)
R2 = 406Fh (16495, 16495)          RA = 4000h (16384, 16384)
R3 = 0E8Ah (3722, 3722)          RB = 0000h (0, 0)
R4 = 002Ah (42, 42)          RC = 0000h (0, 0)
R5 = 0048h (72, 72)          RD = 4004h (16388, 16388)
R6 = 0000h (0, 0)          RE = 0000h (0, 0)
R7 = 0117h (279, 279)          RF = 0000h (0, 0)

Single Step:

0117:  E2        SEX R2     (1 bytes)
0118:  D3        SEP R3     (1 bytes)

Halt Address = 0118h (280)
D = 00h (0, 0)
DF/Carry = 0 (false)
RP = R7 (7) = 0118h (280)
RX = R2 (2) = 406Fh (16495)
Q Flag = 1 (true)
R0 = 0029h (41, 41)          R8 = 4077h (16503, 16503)
R1 = 0000h (0, 0)          R9 = 4025h (16421, 16421)
R2 = 406Fh (16495, 16495)          RA = 4000h (16384, 16384)
R3 = 0E8Ah (3722, 3722)          RB = 0000h (0, 0)
R4 = 002Ah (42, 42)          RC = 0000h (0, 0)
R5 = 0048h (72, 72)          RD = 4004h (16388, 16388)
R6 = 0000h (0, 0)          RE = 0000h (0, 0)
R7 = 0118h (280, 280)          RF = 0000h (0, 0)

Single Step:

0118:  D3        SEP R3     (1 bytes)
0E8A:  D7        SEP R7     (1 bytes)

Halt Address = 0E8Ah (3722)
D = 00h (0, 0)
DF/Carry = 0 (false)
RP = R3 (3) = 0E8Ah (3722)
RX = R2 (2) = 406Fh (16495)
Q Flag = 1 (true)
R0 = 0029h (41, 41)          R8 = 4077h (16503, 16503)
R1 = 0000h (0, 0)          R9 = 4025h (16421, 16421)
R2 = 406Fh (16495, 16495)          RA = 4000h (16384, 16384)
R3 = 0E8Ah (3722, 3722)          RB = 0000h (0, 0)
R4 = 002Ah (42, 42)          RC = 0000h (0, 0)
R5 = 0048h (72, 72)          RD = 4004h (16388, 16388)
R6 = 0000h (0, 0)          RE = 0000h (0, 0)
R7 = 0119h (281, 281)          RF = 0000h (0, 0)

Single Step:

0E8A:  D7        SEP R7     (1 bytes)
0119:  E8        SEX R8     (1 bytes)

Halt Address = 0119h (281)
D = 00h (0, 0)
DF/Carry = 0 (false)
RP = R7 (7) = 0119h (281)
RX = R2 (2) = 406Fh (16495)
Q Flag = 1 (true)
R0 = 0029h (41, 41)          R8 = 4077h (16503, 16503)
R1 = 0000h (0, 0)          R9 = 4025h (16421, 16421)
R2 = 406Fh (16495, 16495)          RA = 4000h (16384, 16384)
R3 = 0E8Bh (3723, 3723)          RB = 0000h (0, 0)
R4 = 002Ah (42, 42)          RC = 0000h (0, 0)
R5 = 0048h (72, 72)          RD = 4004h (16388, 16388)
R6 = 0000h (0, 0)          RE = 0000h (0, 0)
R7 = 0119h (281, 281)          RF = 0000h (0, 0)

Single Step:

0119:  E8        SEX R8     (1 bytes)
011A:  73        STXD     (1 bytes)

Halt Address = 011Ah (282)
D = 00h (0, 0)
DF/Carry = 0 (false)
RP = R7 (7) = 011Ah (282)
RX = R8 (8) = 4077h (16503)
Q Flag = 1 (true)
R0 = 0029h (41, 41)          R8 = 4077h (16503, 16503)
R1 = 0000h (0, 0)          R9 = 4025h (16421, 16421)
R2 = 406Fh (16495, 16495)          RA = 4000h (16384, 16384)
R3 = 0E8Bh (3723, 3723)          RB = 0000h (0, 0)
R4 = 002Ah (42, 42)          RC = 0000h (0, 0)
R5 = 0048h (72, 72)          RD = 4004h (16388, 16388)
R6 = 0000h (0, 0)          RE = 0000h (0, 0)
R7 = 011Ah (282, 282)          RF = 0000h (0, 0)

Single Step:

011A:  73        STXD     (1 bytes)
011B:  76        SHRC     (1 bytes)

Halt Address = 011Bh (283)
D = 00h (0, 0)
DF/Carry = 0 (false)
RP = R7 (7) = 011Bh (283)
RX = R8 (8) = 4076h (16502)
Q Flag = 1 (true)
R0 = 0029h (41, 41)          R8 = 4076h (16502, 16502)
R1 = 0000h (0, 0)          R9 = 4025h (16421, 16421)
R2 = 406Fh (16495, 16495)          RA = 4000h (16384, 16384)
R3 = 0E8Bh (3723, 3723)          RB = 0000h (0, 0)
R4 = 002Ah (42, 42)          RC = 0000h (0, 0)
R5 = 0048h (72, 72)          RD = 4004h (16388, 16388)
R6 = 0000h (0, 0)          RE = 0000h (0, 0)
R7 = 011Bh (283, 283)          RF = 0000h (0, 0)

Single Step:

011B:  76        SHRC     (1 bytes)
011C:  73        STXD     (1 bytes)

Halt Address = 011Ch (284)
D = 00h (0, 0)
DF/Carry = 0 (false)
RP = R7 (7) = 011Ch (284)
RX = R8 (8) = 4076h (16502)
Q Flag = 1 (true)
R0 = 0029h (41, 41)          R8 = 4076h (16502, 16502)
R1 = 0000h (0, 0)          R9 = 4025h (16421, 16421)
R2 = 406Fh (16495, 16495)          RA = 4000h (16384, 16384)
R3 = 0E8Bh (3723, 3723)          RB = 0000h (0, 0)
R4 = 002Ah (42, 42)          RC = 0000h (0, 0)
R5 = 0048h (72, 72)          RD = 4004h (16388, 16388)
R6 = 0000h (0, 0)          RE = 0000h (0, 0)
R7 = 011Ch (284, 284)          RF = 0000h (0, 0)

Single Step:

011C:  73        STXD     (1 bytes)
011D:  43        LDA R3     (1 bytes)

Halt Address = 011Dh (285)
D = 00h (0, 0)
DF/Carry = 0 (false)
RP = R7 (7) = 011Dh (285)
RX = R8 (8) = 4075h (16501)
Q Flag = 1 (true)
R0 = 0029h (41, 41)          R8 = 4075h (16501, 16501)
R1 = 0000h (0, 0)          R9 = 4025h (16421, 16421)
R2 = 406Fh (16495, 16495)          RA = 4000h (16384, 16384)
R3 = 0E8Bh (3723, 3723)          RB = 0000h (0, 0)
R4 = 002Ah (42, 42)          RC = 0000h (0, 0)
R5 = 0048h (72, 72)          RD = 4004h (16388, 16388)
R6 = 0000h (0, 0)          RE = 0000h (0, 0)
R7 = 011Dh (285, 285)          RF = 0000h (0, 0)

Single Step:

011D:  43        LDA R3     (1 bytes)
011E:  A7        PLO R7     (1 bytes)

Halt Address = 011Eh (286)
D = 3Bh (59, 59)
DF/Carry = 0 (false)
RP = R7 (7) = 011Eh (286)
RX = R8 (8) = 4075h (16501)
Q Flag = 1 (true)
R0 = 0029h (41, 41)          R8 = 4075h (16501, 16501)
R1 = 0000h (0, 0)          R9 = 4025h (16421, 16421)
R2 = 406Fh (16495, 16495)          RA = 4000h (16384, 16384)
R3 = 0E8Ch (3724, 3724)          RB = 0000h (0, 0)
R4 = 002Ah (42, 42)          RC = 0000h (0, 0)
R5 = 0048h (72, 72)          RD = 4004h (16388, 16388)
R6 = 0000h (0, 0)          RE = 0000h (0, 0)
R7 = 011Eh (286, 286)          RF = 0000h (0, 0)

Single Step:

011E:  A7        PLO R7     (1 bytes)
013B:  F8 05     LDI 05     (2 bytes)

Halt Address = 013Bh (315)
D = 3Bh (59, 59)
DF/Carry = 0 (false)
RP = R7 (7) = 013Bh (315)
RX = R8 (8) = 4075h (16501)
Q Flag = 1 (true)
R0 = 0029h (41, 41)          R8 = 4075h (16501, 16501)
R1 = 0000h (0, 0)          R9 = 4025h (16421, 16421)
R2 = 406Fh (16495, 16495)          RA = 4000h (16384, 16384)
R3 = 0E8Ch (3724, 3724)          RB = 0000h (0, 0)
R4 = 002Ah (42, 42)          RC = 0000h (0, 0)
R5 = 0048h (72, 72)          RD = 4004h (16388, 16388)
R6 = 0000h (0, 0)          RE = 0000h (0, 0)
R7 = 013Bh (315, 315)          RF = 0000h (0, 0)


Single Step:

013B:  F8 05     LDI 05     (2 bytes)
013D:  C8        NLBR     (1 bytes)

Halt Address = 013Dh (317)
D = 05h (5, 5)
DF/Carry = 0 (false)
RP = R7 (7) = 013Dh (317)
RX = R8 (8) = 4075h (16501)
Q Flag = 1 (true)
R0 = 0029h (41, 41)          R8 = 4075h (16501, 16501)
R1 = 0000h (0, 0)          R9 = 4025h (16421, 16421)
R2 = 406Fh (16495, 16495)          RA = 4000h (16384, 16384)
R3 = 0E8Ch (3724, 3724)          RB = 0000h (0, 0)
R4 = 002Ah (42, 42)          RC = 0000h (0, 0)
R5 = 0048h (72, 72)          RD = 4004h (16388, 16388)
R6 = 0000h (0, 0)          RE = 0000h (0, 0)
R7 = 013Dh (317, 317)          RF = 0000h (0, 0)

Single Step:

013D:  C8        NLBR     (1 bytes)
0140:  C8        NLBR     (1 bytes)

Halt Address = 0140h (320)
D = 05h (5, 5)
DF/Carry = 0 (false)
RP = R7 (7) = 0140h (320)
RX = R8 (8) = 4075h (16501)
Q Flag = 1 (true)
R0 = 0029h (41, 41)          R8 = 4075h (16501, 16501)
R1 = 0000h (0, 0)          R9 = 4025h (16421, 16421)
R2 = 406Fh (16495, 16495)          RA = 4000h (16384, 16384)
R3 = 0E8Ch (3724, 3724)          RB = 0000h (0, 0)
R4 = 002Ah (42, 42)          RC = 0000h (0, 0)
R5 = 0048h (72, 72)          RD = 4004h (16388, 16388)
R6 = 0000h (0, 0)          RE = 0000h (0, 0)
R7 = 0140h (320, 320)          RF = 0000h (0, 0)

Single Step:

0140:  C8        NLBR     (1 bytes)
0143:  AD        PLO RD     (1 bytes)

Halt Address = 0143h (323)
D = 05h (5, 5)
DF/Carry = 0 (false)
RP = R7 (7) = 0143h (323)
RX = R8 (8) = 4075h (16501)
Q Flag = 1 (true)
R0 = 0029h (41, 41)          R8 = 4075h (16501, 16501)
R1 = 0000h (0, 0)          R9 = 4025h (16421, 16421)
R2 = 406Fh (16495, 16495)          RA = 4000h (16384, 16384)
R3 = 0E8Ch (3724, 3724)          RB = 0000h (0, 0)
R4 = 002Ah (42, 42)          RC = 0000h (0, 0)
R5 = 0048h (72, 72)          RD = 4004h (16388, 16388)
R6 = 0000h (0, 0)          RE = 0000h (0, 0)
R7 = 0143h (323, 323)          RF = 0000h (0, 0)

Single Step:

0143:  AD        PLO RD     (1 bytes)
0144:  43        LDA R3     (1 bytes)

Halt Address = 0144h (324)
D = 05h (5, 5)
DF/Carry = 0 (false)
RP = R7 (7) = 0144h (324)
RX = R8 (8) = 4075h (16501)
Q Flag = 1 (true)
R0 = 0029h (41, 41)          R8 = 4075h (16501, 16501)
R1 = 0000h (0, 0)          R9 = 4025h (16421, 16421)
R2 = 406Fh (16495, 16495)          RA = 4000h (16384, 16384)
R3 = 0E8Ch (3724, 3724)          RB = 0000h (0, 0)
R4 = 002Ah (42, 42)          RC = 0000h (0, 0)
R5 = 0048h (72, 72)          RD = 4005h (16389, 16389)
R6 = 0000h (0, 0)          RE = 0000h (0, 0)
R7 = 0144h (324, 324)          RF = 0000h (0, 0)

Single Step:

0144:  43        LDA R3     (1 bytes)
0145:  FB FF     XRI FF     (2 bytes)

Halt Address = 0145h (325)
D = DCh (220, -36)
DF/Carry = 0 (false)
RP = R7 (7) = 0145h (325)
RX = R8 (8) = 4075h (16501)
Q Flag = 1 (true)
R0 = 0029h (41, 41)          R8 = 4075h (16501, 16501)
R1 = 0000h (0, 0)          R9 = 4025h (16421, 16421)
R2 = 406Fh (16495, 16495)          RA = 4000h (16384, 16384)
R3 = 0E8Dh (3725, 3725)          RB = 0000h (0, 0)
R4 = 002Ah (42, 42)          RC = 0000h (0, 0)
R5 = 0048h (72, 72)          RD = 4005h (16389, 16389)
R6 = 0000h (0, 0)          RE = 0000h (0, 0)
R7 = 0145h (325, 325)          RF = 0000h (0, 0)

Single Step:

0145:  FB FF     XRI FF     (2 bytes)
0147:  58        STR R8     (1 bytes)

Halt Address = 0147h (327)
D = 23h (35, 35)
DF/Carry = 0 (false)
RP = R7 (7) = 0147h (327)
RX = R8 (8) = 4075h (16501)
Q Flag = 1 (true)
R0 = 0029h (41, 41)          R8 = 4075h (16501, 16501)
R1 = 0000h (0, 0)          R9 = 4025h (16421, 16421)
R2 = 406Fh (16495, 16495)          RA = 4000h (16384, 16384)
R3 = 0E8Dh (3725, 3725)          RB = 0000h (0, 0)
R4 = 002Ah (42, 42)          RC = 0000h (0, 0)
R5 = 0048h (72, 72)          RD = 4005h (16389, 16389)
R6 = 0000h (0, 0)          RE = 0000h (0, 0)
R7 = 0147h (327, 327)          RF = 0000h (0, 0)

Single Step:

0147:  58        STR R8     (1 bytes)
0148:  0D        LDN RD     (1 bytes)

Halt Address = 0148h (328)
D = 23h (35, 35)
DF/Carry = 0 (false)
RP = R7 (7) = 0148h (328)
RX = R8 (8) = 4075h (16501)
Q Flag = 1 (true)
R0 = 0029h (41, 41)          R8 = 4075h (16501, 16501)
R1 = 0000h (0, 0)          R9 = 4025h (16421, 16421)
R2 = 406Fh (16495, 16495)          RA = 4000h (16384, 16384)
R3 = 0E8Dh (3725, 3725)          RB = 0000h (0, 0)
R4 = 002Ah (42, 42)          RC = 0000h (0, 0)
R5 = 0048h (72, 72)          RD = 4005h (16389, 16389)
R6 = 0000h (0, 0)          RE = 0000h (0, 0)
R7 = 0148h (328, 328)          RF = 0000h (0, 0)

Single Step:

0148:  0D        LDN RD     (1 bytes)
0149:  F2        AND     (1 bytes)

Halt Address = 0149h (329)
D = 00h (0, 0)
DF/Carry = 0 (false)
RP = R7 (7) = 0149h (329)
RX = R8 (8) = 4075h (16501)
Q Flag = 1 (true)
R0 = 0029h (41, 41)          R8 = 4075h (16501, 16501)
R1 = 0000h (0, 0)          R9 = 4025h (16421, 16421)
R2 = 406Fh (16495, 16495)          RA = 4000h (16384, 16384)
R3 = 0E8Dh (3725, 3725)          RB = 0000h (0, 0)
R4 = 002Ah (42, 42)          RC = 0000h (0, 0)
R5 = 0048h (72, 72)          RD = 4005h (16389, 16389)
R6 = 0000h (0, 0)          RE = 0000h (0, 0)
R7 = 0149h (329, 329)          RF = 0000h (0, 0)

Single Step:

0149:  F2        AND     (1 bytes)
014A:  30 32     BR 0132     (2 bytes)

Halt Address = 014Ah (330)
D = 00h (0, 0)
DF/Carry = 0 (false)
RP = R7 (7) = 014Ah (330)
RX = R8 (8) = 4075h (16501)
Q Flag = 1 (true)
R0 = 0029h (41, 41)          R8 = 4075h (16501, 16501)
R1 = 0000h (0, 0)          R9 = 4025h (16421, 16421)
R2 = 406Fh (16495, 16495)          RA = 4000h (16384, 16384)
R3 = 0E8Dh (3725, 3725)          RB = 0000h (0, 0)
R4 = 002Ah (42, 42)          RC = 0000h (0, 0)
R5 = 0048h (72, 72)          RD = 4005h (16389, 16389)
R6 = 0000h (0, 0)          RE = 0000h (0, 0)
R7 = 014Ah (330, 330)          RF = 0000h (0, 0)

Single Step:

014A:  30 32     BR 0132     (2 bytes)
0132:  5D        STR RD     (1 bytes)

Halt Address = 0132h (306)
D = 00h (0, 0)
DF/Carry = 0 (false)
RP = R7 (7) = 0132h (306)
RX = R8 (8) = 4075h (16501)
Q Flag = 1 (true)
R0 = 0029h (41, 41)          R8 = 4075h (16501, 16501)
R1 = 0000h (0, 0)          R9 = 4025h (16421, 16421)
R2 = 406Fh (16495, 16495)          RA = 4000h (16384, 16384)
R3 = 0E8Dh (3725, 3725)          RB = 0000h (0, 0)
R4 = 002Ah (42, 42)          RC = 0000h (0, 0)
R5 = 0048h (72, 72)          RD = 4005h (16389, 16389)
R6 = 0000h (0, 0)          RE = 0000h (0, 0)
R7 = 0132h (306, 306)          RF = 0000h (0, 0)


Single Step:

0132:  5D        STR RD     (1 bytes)
0133:  30 13     BR 0113     (2 bytes)

Halt Address = 0133h (307)
D = 00h (0, 0)
DF/Carry = 0 (false)
RP = R7 (7) = 0133h (307)
RX = R8 (8) = 4075h (16501)
Q Flag = 1 (true)
R0 = 0029h (41, 41)          R8 = 4075h (16501, 16501)
R1 = 0000h (0, 0)          R9 = 4025h (16421, 16421)
R2 = 406Fh (16495, 16495)          RA = 4000h (16384, 16384)
R3 = 0E8Dh (3725, 3725)          RB = 0000h (0, 0)
R4 = 002Ah (42, 42)          RC = 0000h (0, 0)
R5 = 0048h (72, 72)          RD = 4005h (16389, 16389)
R6 = 0000h (0, 0)          RE = 0000h (0, 0)
R7 = 0133h (307, 307)          RF = 0000h (0, 0)

Single Step:

0133:  30 13     BR 0113     (2 bytes)
0113:  60        IRX     (1 bytes)

Halt Address = 0113h (275)
D = 00h (0, 0)
DF/Carry = 0 (false)
RP = R7 (7) = 0113h (275)
RX = R8 (8) = 4075h (16501)
Q Flag = 1 (true)
R0 = 0029h (41, 41)          R8 = 4075h (16501, 16501)
R1 = 0000h (0, 0)          R9 = 4025h (16421, 16421)
R2 = 406Fh (16495, 16495)          RA = 4000h (16384, 16384)
R3 = 0E8Dh (3725, 3725)          RB = 0000h (0, 0)
R4 = 002Ah (42, 42)          RC = 0000h (0, 0)
R5 = 0048h (72, 72)          RD = 4005h (16389, 16389)
R6 = 0000h (0, 0)          RE = 0000h (0, 0)
R7 = 0113h (275, 275)          RF = 0000h (0, 0)

Single Step:

0113:  60        IRX     (1 bytes)
0114:  72        LDXA     (1 bytes)

Halt Address = 0114h (276)
D = 00h (0, 0)
DF/Carry = 0 (false)
RP = R7 (7) = 0114h (276)
RX = R8 (8) = 4076h (16502)
Q Flag = 1 (true)
R0 = 0029h (41, 41)          R8 = 4076h (16502, 16502)
R1 = 0000h (0, 0)          R9 = 4025h (16421, 16421)
R2 = 406Fh (16495, 16495)          RA = 4000h (16384, 16384)
R3 = 0E8Dh (3725, 3725)          RB = 0000h (0, 0)
R4 = 002Ah (42, 42)          RC = 0000h (0, 0)
R5 = 0048h (72, 72)          RD = 4005h (16389, 16389)
R6 = 0000h (0, 0)          RE = 0000h (0, 0)
R7 = 0114h (276, 276)          RF = 0000h (0, 0)

Single Step:

0114:  72        LDXA     (1 bytes)
0115:  FE        SHL     (1 bytes)

Halt Address = 0115h (277)
D = 00h (0, 0)
DF/Carry = 0 (false)
RP = R7 (7) = 0115h (277)
RX = R8 (8) = 4077h (16503)
Q Flag = 1 (true)
R0 = 0029h (41, 41)          R8 = 4077h (16503, 16503)
R1 = 0000h (0, 0)          R9 = 4025h (16421, 16421)
R2 = 406Fh (16495, 16495)          RA = 4000h (16384, 16384)
R3 = 0E8Dh (3725, 3725)          RB = 0000h (0, 0)
R4 = 002Ah (42, 42)          RC = 0000h (0, 0)
R5 = 0048h (72, 72)          RD = 4005h (16389, 16389)
R6 = 0000h (0, 0)          RE = 0000h (0, 0)
R7 = 0115h (277, 277)          RF = 0000h (0, 0)

Single Step:

0115:  FE        SHL     (1 bytes)
0116:  F0        LDX     (1 bytes)

Halt Address = 0116h (278)
D = 00h (0, 0)
DF/Carry = 0 (false)
RP = R7 (7) = 0116h (278)
RX = R8 (8) = 4077h (16503)
Q Flag = 1 (true)
R0 = 0029h (41, 41)          R8 = 4077h (16503, 16503)
R1 = 0000h (0, 0)          R9 = 4025h (16421, 16421)
R2 = 406Fh (16495, 16495)          RA = 4000h (16384, 16384)
R3 = 0E8Dh (3725, 3725)          RB = 0000h (0, 0)
R4 = 002Ah (42, 42)          RC = 0000h (0, 0)
R5 = 0048h (72, 72)          RD = 4005h (16389, 16389)
R6 = 0000h (0, 0)          RE = 0000h (0, 0)
R7 = 0116h (278, 278)          RF = 0000h (0, 0)

Single Step:

0116:  F0        LDX     (1 bytes)
0117:  E2        SEX R2     (1 bytes)

Halt Address = 0117h (279)
D = 00h (0, 0)
DF/Carry = 0 (false)
RP = R7 (7) = 0117h (279)
RX = R8 (8) = 4077h (16503)
Q Flag = 1 (true)
R0 = 0029h (41, 41)          R8 = 4077h (16503, 16503)
R1 = 0000h (0, 0)          R9 = 4025h (16421, 16421)
R2 = 406Fh (16495, 16495)          RA = 4000h (16384, 16384)
R3 = 0E8Dh (3725, 3725)          RB = 0000h (0, 0)
R4 = 002Ah (42, 42)          RC = 0000h (0, 0)
R5 = 0048h (72, 72)          RD = 4005h (16389, 16389)
R6 = 0000h (0, 0)          RE = 0000h (0, 0)
R7 = 0117h (279, 279)          RF = 0000h (0, 0)

Single Step:

0117:  E2        SEX R2     (1 bytes)
0118:  D3        SEP R3     (1 bytes)

Halt Address = 0118h (280)
D = 00h (0, 0)
DF/Carry = 0 (false)
RP = R7 (7) = 0118h (280)
RX = R2 (2) = 406Fh (16495)
Q Flag = 1 (true)
R0 = 0029h (41, 41)          R8 = 4077h (16503, 16503)
R1 = 0000h (0, 0)          R9 = 4025h (16421, 16421)
R2 = 406Fh (16495, 16495)          RA = 4000h (16384, 16384)
R3 = 0E8Dh (3725, 3725)          RB = 0000h (0, 0)
R4 = 002Ah (42, 42)          RC = 0000h (0, 0)
R5 = 0048h (72, 72)          RD = 4005h (16389, 16389)
R6 = 0000h (0, 0)          RE = 0000h (0, 0)
R7 = 0118h (280, 280)          RF = 0000h (0, 0)

Single Step:

0118:  D3        SEP R3     (1 bytes)
0E8D:  D7        SEP R7     (1 bytes)

Halt Address = 0E8Dh (3725)
D = 00h (0, 0)
DF/Carry = 0 (false)
RP = R3 (3) = 0E8Dh (3725)
RX = R2 (2) = 406Fh (16495)
Q Flag = 1 (true)
R0 = 0029h (41, 41)          R8 = 4077h (16503, 16503)
R1 = 0000h (0, 0)          R9 = 4025h (16421, 16421)
R2 = 406Fh (16495, 16495)          RA = 4000h (16384, 16384)
R3 = 0E8Dh (3725, 3725)          RB = 0000h (0, 0)
R4 = 002Ah (42, 42)          RC = 0000h (0, 0)
R5 = 0048h (72, 72)          RD = 4005h (16389, 16389)
R6 = 0000h (0, 0)          RE = 0000h (0, 0)
R7 = 0119h (281, 281)          RF = 0000h (0, 0)

Single Step:

0E8D:  D7        SEP R7     (1 bytes)
0119:  E8        SEX R8     (1 bytes)

Halt Address = 0119h (281)
D = 00h (0, 0)
DF/Carry = 0 (false)
RP = R7 (7) = 0119h (281)
RX = R2 (2) = 406Fh (16495)
Q Flag = 1 (true)
R0 = 0029h (41, 41)          R8 = 4077h (16503, 16503)
R1 = 0000h (0, 0)          R9 = 4025h (16421, 16421)
R2 = 406Fh (16495, 16495)          RA = 4000h (16384, 16384)
R3 = 0E8Eh (3726, 3726)          RB = 0000h (0, 0)
R4 = 002Ah (42, 42)          RC = 0000h (0, 0)
R5 = 0048h (72, 72)          RD = 4005h (16389, 16389)
R6 = 0000h (0, 0)          RE = 0000h (0, 0)
R7 = 0119h (281, 281)          RF = 0000h (0, 0)

Single Step:

0119:  E8        SEX R8     (1 bytes)
011A:  73        STXD     (1 bytes)

Halt Address = 011Ah (282)
D = 00h (0, 0)
DF/Carry = 0 (false)
RP = R7 (7) = 011Ah (282)
RX = R8 (8) = 4077h (16503)
Q Flag = 1 (true)
R0 = 0029h (41, 41)          R8 = 4077h (16503, 16503)
R1 = 0000h (0, 0)          R9 = 4025h (16421, 16421)
R2 = 406Fh (16495, 16495)          RA = 4000h (16384, 16384)
R3 = 0E8Eh (3726, 3726)          RB = 0000h (0, 0)
R4 = 002Ah (42, 42)          RC = 0000h (0, 0)
R5 = 0048h (72, 72)          RD = 4005h (16389, 16389)
R6 = 0000h (0, 0)          RE = 0000h (0, 0)
R7 = 011Ah (282, 282)          RF = 0000h (0, 0)


Single Step:

011A:  73        STXD     (1 bytes)
011B:  76        SHRC     (1 bytes)

Halt Address = 011Bh (283)
D = 00h (0, 0)
DF/Carry = 0 (false)
RP = R7 (7) = 011Bh (283)
RX = R8 (8) = 4076h (16502)
Q Flag = 1 (true)
R0 = 0029h (41, 41)          R8 = 4076h (16502, 16502)
R1 = 0000h (0, 0)          R9 = 4025h (16421, 16421)
R2 = 406Fh (16495, 16495)          RA = 4000h (16384, 16384)
R3 = 0E8Eh (3726, 3726)          RB = 0000h (0, 0)
R4 = 002Ah (42, 42)          RC = 0000h (0, 0)
R5 = 0048h (72, 72)          RD = 4005h (16389, 16389)
R6 = 0000h (0, 0)          RE = 0000h (0, 0)
R7 = 011Bh (283, 283)          RF = 0000h (0, 0)

Single Step:

011B:  76        SHRC     (1 bytes)
011C:  73        STXD     (1 bytes)

Halt Address = 011Ch (284)
D = 00h (0, 0)
DF/Carry = 0 (false)
RP = R7 (7) = 011Ch (284)
RX = R8 (8) = 4076h (16502)
Q Flag = 1 (true)
R0 = 0029h (41, 41)          R8 = 4076h (16502, 16502)
R1 = 0000h (0, 0)          R9 = 4025h (16421, 16421)
R2 = 406Fh (16495, 16495)          RA = 4000h (16384, 16384)
R3 = 0E8Eh (3726, 3726)          RB = 0000h (0, 0)
R4 = 002Ah (42, 42)          RC = 0000h (0, 0)
R5 = 0048h (72, 72)          RD = 4005h (16389, 16389)
R6 = 0000h (0, 0)          RE = 0000h (0, 0)
R7 = 011Ch (284, 284)          RF = 0000h (0, 0)

Single Step:

011C:  73        STXD     (1 bytes)
011D:  43        LDA R3     (1 bytes)

Halt Address = 011Dh (285)
D = 00h (0, 0)
DF/Carry = 0 (false)
RP = R7 (7) = 011Dh (285)
RX = R8 (8) = 4075h (16501)
Q Flag = 1 (true)
R0 = 0029h (41, 41)          R8 = 4075h (16501, 16501)
R1 = 0000h (0, 0)          R9 = 4025h (16421, 16421)
R2 = 406Fh (16495, 16495)          RA = 4000h (16384, 16384)
R3 = 0E8Eh (3726, 3726)          RB = 0000h (0, 0)
R4 = 002Ah (42, 42)          RC = 0000h (0, 0)
R5 = 0048h (72, 72)          RD = 4005h (16389, 16389)
R6 = 0000h (0, 0)          RE = 0000h (0, 0)
R7 = 011Dh (285, 285)          RF = 0000h (0, 0)

Single Step:

011D:  43        LDA R3     (1 bytes)
011E:  A7        PLO R7     (1 bytes)

Halt Address = 011Eh (286)
D = 25h (37, 37)
DF/Carry = 0 (false)
RP = R7 (7) = 011Eh (286)
RX = R8 (8) = 4075h (16501)
Q Flag = 1 (true)
R0 = 0029h (41, 41)          R8 = 4075h (16501, 16501)
R1 = 0000h (0, 0)          R9 = 4025h (16421, 16421)
R2 = 406Fh (16495, 16495)          RA = 4000h (16384, 16384)
R3 = 0E8Fh (3727, 3727)          RB = 0000h (0, 0)
R4 = 002Ah (42, 42)          RC = 0000h (0, 0)
R5 = 0048h (72, 72)          RD = 4005h (16389, 16389)
R6 = 0000h (0, 0)          RE = 0000h (0, 0)
R7 = 011Eh (286, 286)          RF = 0000h (0, 0)

Single Step:

011E:  A7        PLO R7     (1 bytes)
0125:  F8 05     LDI 05     (2 bytes)

Halt Address = 0125h (293)
D = 25h (37, 37)
DF/Carry = 0 (false)
RP = R7 (7) = 0125h (293)
RX = R8 (8) = 4075h (16501)
Q Flag = 1 (true)
R0 = 0029h (41, 41)          R8 = 4075h (16501, 16501)
R1 = 0000h (0, 0)          R9 = 4025h (16421, 16421)
R2 = 406Fh (16495, 16495)          RA = 4000h (16384, 16384)
R3 = 0E8Fh (3727, 3727)          RB = 0000h (0, 0)
R4 = 002Ah (42, 42)          RC = 0000h (0, 0)
R5 = 0048h (72, 72)          RD = 4005h (16389, 16389)
R6 = 0000h (0, 0)          RE = 0000h (0, 0)
R7 = 0125h (293, 293)          RF = 0000h (0, 0)

Single Step:

0125:  F8 05     LDI 05     (2 bytes)
0127:  C8        NLBR     (1 bytes)

Halt Address = 0127h (295)
D = 05h (5, 5)
DF/Carry = 0 (false)
RP = R7 (7) = 0127h (295)
RX = R8 (8) = 4075h (16501)
Q Flag = 1 (true)
R0 = 0029h (41, 41)          R8 = 4075h (16501, 16501)
R1 = 0000h (0, 0)          R9 = 4025h (16421, 16421)
R2 = 406Fh (16495, 16495)          RA = 4000h (16384, 16384)
R3 = 0E8Fh (3727, 3727)          RB = 0000h (0, 0)
R4 = 002Ah (42, 42)          RC = 0000h (0, 0)
R5 = 0048h (72, 72)          RD = 4005h (16389, 16389)
R6 = 0000h (0, 0)          RE = 0000h (0, 0)
R7 = 0127h (295, 295)          RF = 0000h (0, 0)

Single Step:

0127:  C8        NLBR     (1 bytes)
012A:  C8        NLBR     (1 bytes)

Halt Address = 012Ah (298)
D = 05h (5, 5)
DF/Carry = 0 (false)
RP = R7 (7) = 012Ah (298)
RX = R8 (8) = 4075h (16501)
Q Flag = 1 (true)
R0 = 0029h (41, 41)          R8 = 4075h (16501, 16501)
R1 = 0000h (0, 0)          R9 = 4025h (16421, 16421)
R2 = 406Fh (16495, 16495)          RA = 4000h (16384, 16384)
R3 = 0E8Fh (3727, 3727)          RB = 0000h (0, 0)
R4 = 002Ah (42, 42)          RC = 0000h (0, 0)
R5 = 0048h (72, 72)          RD = 4005h (16389, 16389)
R6 = 0000h (0, 0)          RE = 0000h (0, 0)
R7 = 012Ah (298, 298)          RF = 0000h (0, 0)

Single Step:

012A:  C8        NLBR     (1 bytes)
012D:  AD        PLO RD     (1 bytes)

Halt Address = 012Dh (301)
D = 05h (5, 5)
DF/Carry = 0 (false)
RP = R7 (7) = 012Dh (301)
RX = R8 (8) = 4075h (16501)
Q Flag = 1 (true)
R0 = 0029h (41, 41)          R8 = 4075h (16501, 16501)
R1 = 0000h (0, 0)          R9 = 4025h (16421, 16421)
R2 = 406Fh (16495, 16495)          RA = 4000h (16384, 16384)
R3 = 0E8Fh (3727, 3727)          RB = 0000h (0, 0)
R4 = 002Ah (42, 42)          RC = 0000h (0, 0)
R5 = 0048h (72, 72)          RD = 4005h (16389, 16389)
R6 = 0000h (0, 0)          RE = 0000h (0, 0)
R7 = 012Dh (301, 301)          RF = 0000h (0, 0)

Single Step:

012D:  AD        PLO RD     (1 bytes)
012E:  43        LDA R3     (1 bytes)

Halt Address = 012Eh (302)
D = 05h (5, 5)
DF/Carry = 0 (false)
RP = R7 (7) = 012Eh (302)
RX = R8 (8) = 4075h (16501)
Q Flag = 1 (true)
R0 = 0029h (41, 41)          R8 = 4075h (16501, 16501)
R1 = 0000h (0, 0)          R9 = 4025h (16421, 16421)
R2 = 406Fh (16495, 16495)          RA = 4000h (16384, 16384)
R3 = 0E8Fh (3727, 3727)          RB = 0000h (0, 0)
R4 = 002Ah (42, 42)          RC = 0000h (0, 0)
R5 = 0048h (72, 72)          RD = 4005h (16389, 16389)
R6 = 0000h (0, 0)          RE = 0000h (0, 0)
R7 = 012Eh (302, 302)          RF = 0000h (0, 0)

Single Step:

012E:  43        LDA R3     (1 bytes)
012F:  58        STR R8     (1 bytes)

Halt Address = 012Fh (303)
D = 22h (34, 34)
DF/Carry = 0 (false)
RP = R7 (7) = 012Fh (303)
RX = R8 (8) = 4075h (16501)
Q Flag = 1 (true)
R0 = 0029h (41, 41)          R8 = 4075h (16501, 16501)
R1 = 0000h (0, 0)          R9 = 4025h (16421, 16421)
R2 = 406Fh (16495, 16495)          RA = 4000h (16384, 16384)
R3 = 0E90h (3728, 3728)          RB = 0000h (0, 0)
R4 = 002Ah (42, 42)          RC = 0000h (0, 0)
R5 = 0048h (72, 72)          RD = 4005h (16389, 16389)
R6 = 0000h (0, 0)          RE = 0000h (0, 0)
R7 = 012Fh (303, 303)          RF = 0000h (0, 0)


Single Step:

012F:  58        STR R8     (1 bytes)
0130:  0D        LDN RD     (1 bytes)

Halt Address = 0130h (304)
D = 22h (34, 34)
DF/Carry = 0 (false)
RP = R7 (7) = 0130h (304)
RX = R8 (8) = 4075h (16501)
Q Flag = 1 (true)
R0 = 0029h (41, 41)          R8 = 4075h (16501, 16501)
R1 = 0000h (0, 0)          R9 = 4025h (16421, 16421)
R2 = 406Fh (16495, 16495)          RA = 4000h (16384, 16384)
R3 = 0E90h (3728, 3728)          RB = 0000h (0, 0)
R4 = 002Ah (42, 42)          RC = 0000h (0, 0)
R5 = 0048h (72, 72)          RD = 4005h (16389, 16389)
R6 = 0000h (0, 0)          RE = 0000h (0, 0)
R7 = 0130h (304, 304)          RF = 0000h (0, 0)

Single Step:

0130:  0D        LDN RD     (1 bytes)
0131:  F1        OR     (1 bytes)

Halt Address = 0131h (305)
D = 00h (0, 0)
DF/Carry = 0 (false)
RP = R7 (7) = 0131h (305)
RX = R8 (8) = 4075h (16501)
Q Flag = 1 (true)
R0 = 0029h (41, 41)          R8 = 4075h (16501, 16501)
R1 = 0000h (0, 0)          R9 = 4025h (16421, 16421)
R2 = 406Fh (16495, 16495)          RA = 4000h (16384, 16384)
R3 = 0E90h (3728, 3728)          RB = 0000h (0, 0)
R4 = 002Ah (42, 42)          RC = 0000h (0, 0)
R5 = 0048h (72, 72)          RD = 4005h (16389, 16389)
R6 = 0000h (0, 0)          RE = 0000h (0, 0)
R7 = 0131h (305, 305)          RF = 0000h (0, 0)

Single Step:

0131:  F1        OR     (1 bytes)
0132:  5D        STR RD     (1 bytes)

Halt Address = 0132h (306)
D = 22h (34, 34)
DF/Carry = 0 (false)
RP = R7 (7) = 0132h (306)
RX = R8 (8) = 4075h (16501)
Q Flag = 1 (true)
R0 = 0029h (41, 41)          R8 = 4075h (16501, 16501)
R1 = 0000h (0, 0)          R9 = 4025h (16421, 16421)
R2 = 406Fh (16495, 16495)          RA = 4000h (16384, 16384)
R3 = 0E90h (3728, 3728)          RB = 0000h (0, 0)
R4 = 002Ah (42, 42)          RC = 0000h (0, 0)
R5 = 0048h (72, 72)          RD = 4005h (16389, 16389)
R6 = 0000h (0, 0)          RE = 0000h (0, 0)
R7 = 0132h (306, 306)          RF = 0000h (0, 0)

Single Step:

0132:  5D        STR RD     (1 bytes)
0133:  30 13     BR 0113     (2 bytes)

Halt Address = 0133h (307)
D = 22h (34, 34)
DF/Carry = 0 (false)
RP = R7 (7) = 0133h (307)
RX = R8 (8) = 4075h (16501)
Q Flag = 1 (true)
R0 = 0029h (41, 41)          R8 = 4075h (16501, 16501)
R1 = 0000h (0, 0)          R9 = 4025h (16421, 16421)
R2 = 406Fh (16495, 16495)          RA = 4000h (16384, 16384)
R3 = 0E90h (3728, 3728)          RB = 0000h (0, 0)
R4 = 002Ah (42, 42)          RC = 0000h (0, 0)
R5 = 0048h (72, 72)          RD = 4005h (16389, 16389)
R6 = 0000h (0, 0)          RE = 0000h (0, 0)
R7 = 0133h (307, 307)          RF = 0000h (0, 0)

Single Step:

0133:  30 13     BR 0113     (2 bytes)
0113:  60        IRX     (1 bytes)

Halt Address = 0113h (275)
D = 22h (34, 34)
DF/Carry = 0 (false)
RP = R7 (7) = 0113h (275)
RX = R8 (8) = 4075h (16501)
Q Flag = 1 (true)
R0 = 0029h (41, 41)          R8 = 4075h (16501, 16501)
R1 = 0000h (0, 0)          R9 = 4025h (16421, 16421)
R2 = 406Fh (16495, 16495)          RA = 4000h (16384, 16384)
R3 = 0E90h (3728, 3728)          RB = 0000h (0, 0)
R4 = 002Ah (42, 42)          RC = 0000h (0, 0)
R5 = 0048h (72, 72)          RD = 4005h (16389, 16389)
R6 = 0000h (0, 0)          RE = 0000h (0, 0)
R7 = 0113h (275, 275)          RF = 0000h (0, 0)

Single Step:

0113:  60        IRX     (1 bytes)
0114:  72        LDXA     (1 bytes)

Halt Address = 0114h (276)
D = 22h (34, 34)
DF/Carry = 0 (false)
RP = R7 (7) = 0114h (276)
RX = R8 (8) = 4076h (16502)
Q Flag = 1 (true)
R0 = 0029h (41, 41)          R8 = 4076h (16502, 16502)
R1 = 0000h (0, 0)          R9 = 4025h (16421, 16421)
R2 = 406Fh (16495, 16495)          RA = 4000h (16384, 16384)
R3 = 0E90h (3728, 3728)          RB = 0000h (0, 0)
R4 = 002Ah (42, 42)          RC = 0000h (0, 0)
R5 = 0048h (72, 72)          RD = 4005h (16389, 16389)
R6 = 0000h (0, 0)          RE = 0000h (0, 0)
R7 = 0114h (276, 276)          RF = 0000h (0, 0)

Single Step:

0114:  72        LDXA     (1 bytes)
0115:  FE        SHL     (1 bytes)

Halt Address = 0115h (277)
D = 00h (0, 0)
DF/Carry = 0 (false)
RP = R7 (7) = 0115h (277)
RX = R8 (8) = 4077h (16503)
Q Flag = 1 (true)
R0 = 0029h (41, 41)          R8 = 4077h (16503, 16503)
R1 = 0000h (0, 0)          R9 = 4025h (16421, 16421)
R2 = 406Fh (16495, 16495)          RA = 4000h (16384, 16384)
R3 = 0E90h (3728, 3728)          RB = 0000h (0, 0)
R4 = 002Ah (42, 42)          RC = 0000h (0, 0)
R5 = 0048h (72, 72)          RD = 4005h (16389, 16389)
R6 = 0000h (0, 0)          RE = 0000h (0, 0)
R7 = 0115h (277, 277)          RF = 0000h (0, 0)

Single Step:

0115:  FE        SHL     (1 bytes)
0116:  F0        LDX     (1 bytes)

Halt Address = 0116h (278)
D = 00h (0, 0)
DF/Carry = 0 (false)
RP = R7 (7) = 0116h (278)
RX = R8 (8) = 4077h (16503)
Q Flag = 1 (true)
R0 = 0029h (41, 41)          R8 = 4077h (16503, 16503)
R1 = 0000h (0, 0)          R9 = 4025h (16421, 16421)
R2 = 406Fh (16495, 16495)          RA = 4000h (16384, 16384)
R3 = 0E90h (3728, 3728)          RB = 0000h (0, 0)
R4 = 002Ah (42, 42)          RC = 0000h (0, 0)
R5 = 0048h (72, 72)          RD = 4005h (16389, 16389)
R6 = 0000h (0, 0)          RE = 0000h (0, 0)
R7 = 0116h (278, 278)          RF = 0000h (0, 0)

Single Step:

0116:  F0        LDX     (1 bytes)
0117:  E2        SEX R2     (1 bytes)

Halt Address = 0117h (279)
D = 00h (0, 0)
DF/Carry = 0 (false)
RP = R7 (7) = 0117h (279)
RX = R8 (8) = 4077h (16503)
Q Flag = 1 (true)
R0 = 0029h (41, 41)          R8 = 4077h (16503, 16503)
R1 = 0000h (0, 0)          R9 = 4025h (16421, 16421)
R2 = 406Fh (16495, 16495)          RA = 4000h (16384, 16384)
R3 = 0E90h (3728, 3728)          RB = 0000h (0, 0)
R4 = 002Ah (42, 42)          RC = 0000h (0, 0)
R5 = 0048h (72, 72)          RD = 4005h (16389, 16389)
R6 = 0000h (0, 0)          RE = 0000h (0, 0)
R7 = 0117h (279, 279)          RF = 0000h (0, 0)

Single Step:

0117:  E2        SEX R2     (1 bytes)
0118:  D3        SEP R3     (1 bytes)

Halt Address = 0118h (280)
D = 00h (0, 0)
DF/Carry = 0 (false)
RP = R7 (7) = 0118h (280)
RX = R2 (2) = 406Fh (16495)
Q Flag = 1 (true)
R0 = 0029h (41, 41)          R8 = 4077h (16503, 16503)
R1 = 0000h (0, 0)          R9 = 4025h (16421, 16421)
R2 = 406Fh (16495, 16495)          RA = 4000h (16384, 16384)
R3 = 0E90h (3728, 3728)          RB = 0000h (0, 0)
R4 = 002Ah (42, 42)          RC = 0000h (0, 0)
R5 = 0048h (72, 72)          RD = 4005h (16389, 16389)
R6 = 0000h (0, 0)          RE = 0000h (0, 0)
R7 = 0118h (280, 280)          RF = 0000h (0, 0)


Single Step:

0118:  D3        SEP R3     (1 bytes)
0E90:  E3        SEX R3     (1 bytes)

Halt Address = 0E90h (3728)
D = 00h (0, 0)
DF/Carry = 0 (false)
RP = R3 (3) = 0E90h (3728)
RX = R2 (2) = 406Fh (16495)
Q Flag = 1 (true)
R0 = 0029h (41, 41)          R8 = 4077h (16503, 16503)
R1 = 0000h (0, 0)          R9 = 4025h (16421, 16421)
R2 = 406Fh (16495, 16495)          RA = 4000h (16384, 16384)
R3 = 0E90h (3728, 3728)          RB = 0000h (0, 0)
R4 = 002Ah (42, 42)          RC = 0000h (0, 0)
R5 = 0048h (72, 72)          RD = 4005h (16389, 16389)
R6 = 0000h (0, 0)          RE = 0000h (0, 0)
R7 = 0119h (281, 281)          RF = 0000h (0, 0)

Single Step:

0E90:  E3        SEX R3     (1 bytes)
0E91:  62        OUT 2     (1 bytes)

Halt Address = 0E91h (3729)
D = 00h (0, 0)
DF/Carry = 0 (false)
RP = R3 (3) = 0E91h (3729)
RX = R3 (3) = 0E91h (3729)
Q Flag = 1 (true)
R0 = 0029h (41, 41)          R8 = 4077h (16503, 16503)
R1 = 0000h (0, 0)          R9 = 4025h (16421, 16421)
R2 = 406Fh (16495, 16495)          RA = 4000h (16384, 16384)
R3 = 0E91h (3729, 3729)          RB = 0000h (0, 0)
R4 = 002Ah (42, 42)          RC = 0000h (0, 0)
R5 = 0048h (72, 72)          RD = 4005h (16389, 16389)
R6 = 0000h (0, 0)          RE = 0000h (0, 0)
R7 = 0119h (281, 281)          RF = 0000h (0, 0)

Single Step:

0E91:  62        OUT 2     (1 bytes)
0E93:  D4        SEP R4     (1 bytes)

Halt Address = 0E93h (3731)
D = 00h (0, 0)
DF/Carry = 0 (false)
RP = R3 (3) = 0E93h (3731)
RX = R3 (3) = 0E93h (3731)
Q Flag = 1 (true)
R0 = 0029h (41, 41)          R8 = 4077h (16503, 16503)
R1 = 0000h (0, 0)          R9 = 4025h (16421, 16421)
R2 = 406Fh (16495, 16495)          RA = 4000h (16384, 16384)
R3 = 0E93h (3731, 3731)          RB = 0000h (0, 0)
R4 = 002Ah (42, 42)          RC = 0000h (0, 0)
R5 = 0048h (72, 72)          RD = 4005h (16389, 16389)
R6 = 0000h (0, 0)          RE = 0000h (0, 0)
R7 = 0119h (281, 281)          RF = 0000h (0, 0)

Single Step:

0E93:  D4        SEP R4     (1 bytes)
002A:  E2        SEX R2     (1 bytes)

Halt Address = 002Ah (42)
D = 00h (0, 0)
DF/Carry = 0 (false)
RP = R4 (4) = 002Ah (42)
RX = R3 (3) = 0E94h (3732)
Q Flag = 1 (true)
R0 = 0029h (41, 41)          R8 = 4077h (16503, 16503)
R1 = 0000h (0, 0)          R9 = 4025h (16421, 16421)
R2 = 406Fh (16495, 16495)          RA = 4000h (16384, 16384)
R3 = 0E94h (3732, 3732)          RB = 0000h (0, 0)
R4 = 002Ah (42, 42)          RC = 0000h (0, 0)
R5 = 0048h (72, 72)          RD = 4005h (16389, 16389)
R6 = 0000h (0, 0)          RE = 0000h (0, 0)
R7 = 0119h (281, 281)          RF = 0000h (0, 0)

Single Step:

002A:  E2        SEX R2     (1 bytes)
002B:  96        GHI R6     (1 bytes)

Halt Address = 002Bh (43)
D = 00h (0, 0)
DF/Carry = 0 (false)
RP = R4 (4) = 002Bh (43)
RX = R2 (2) = 406Fh (16495)
Q Flag = 1 (true)
R0 = 0029h (41, 41)          R8 = 4077h (16503, 16503)
R1 = 0000h (0, 0)          R9 = 4025h (16421, 16421)
R2 = 406Fh (16495, 16495)          RA = 4000h (16384, 16384)
R3 = 0E94h (3732, 3732)          RB = 0000h (0, 0)
R4 = 002Bh (43, 43)          RC = 0000h (0, 0)
R5 = 0048h (72, 72)          RD = 4005h (16389, 16389)
R6 = 0000h (0, 0)          RE = 0000h (0, 0)
R7 = 0119h (281, 281)          RF = 0000h (0, 0)

Single Step:

002B:  96        GHI R6     (1 bytes)
002C:  73        STXD     (1 bytes)

Halt Address = 002Ch (44)
D = 00h (0, 0)
DF/Carry = 0 (false)
RP = R4 (4) = 002Ch (44)
RX = R2 (2) = 406Fh (16495)
Q Flag = 1 (true)
R0 = 0029h (41, 41)          R8 = 4077h (16503, 16503)
R1 = 0000h (0, 0)          R9 = 4025h (16421, 16421)
R2 = 406Fh (16495, 16495)          RA = 4000h (16384, 16384)
R3 = 0E94h (3732, 3732)          RB = 0000h (0, 0)
R4 = 002Ch (44, 44)          RC = 0000h (0, 0)
R5 = 0048h (72, 72)          RD = 4005h (16389, 16389)
R6 = 0000h (0, 0)          RE = 0000h (0, 0)
R7 = 0119h (281, 281)          RF = 0000h (0, 0)

Single Step:

002C:  73        STXD     (1 bytes)
002D:  86        GLO R6     (1 bytes)

Halt Address = 002Dh (45)
D = 00h (0, 0)
DF/Carry = 0 (false)
RP = R4 (4) = 002Dh (45)
RX = R2 (2) = 406Eh (16494)
Q Flag = 1 (true)
R0 = 0029h (41, 41)          R8 = 4077h (16503, 16503)
R1 = 0000h (0, 0)          R9 = 4025h (16421, 16421)
R2 = 406Eh (16494, 16494)          RA = 4000h (16384, 16384)
R3 = 0E94h (3732, 3732)          RB = 0000h (0, 0)
R4 = 002Dh (45, 45)          RC = 0000h (0, 0)
R5 = 0048h (72, 72)          RD = 4005h (16389, 16389)
R6 = 0000h (0, 0)          RE = 0000h (0, 0)
R7 = 0119h (281, 281)          RF = 0000h (0, 0)

Single Step:

002D:  86        GLO R6     (1 bytes)
002E:  73        STXD     (1 bytes)

Halt Address = 002Eh (46)
D = 00h (0, 0)
DF/Carry = 0 (false)
RP = R4 (4) = 002Eh (46)
RX = R2 (2) = 406Eh (16494)
Q Flag = 1 (true)
R0 = 0029h (41, 41)          R8 = 4077h (16503, 16503)
R1 = 0000h (0, 0)          R9 = 4025h (16421, 16421)
R2 = 406Eh (16494, 16494)          RA = 4000h (16384, 16384)
R3 = 0E94h (3732, 3732)          RB = 0000h (0, 0)
R4 = 002Eh (46, 46)          RC = 0000h (0, 0)
R5 = 0048h (72, 72)          RD = 4005h (16389, 16389)
R6 = 0000h (0, 0)          RE = 0000h (0, 0)
R7 = 0119h (281, 281)          RF = 0000h (0, 0)

Single Step:

002E:  73        STXD     (1 bytes)
002F:  93        GHI R3     (1 bytes)

Halt Address = 002Fh (47)
D = 00h (0, 0)
DF/Carry = 0 (false)
RP = R4 (4) = 002Fh (47)
RX = R2 (2) = 406Dh (16493)
Q Flag = 1 (true)
R0 = 0029h (41, 41)          R8 = 4077h (16503, 16503)
R1 = 0000h (0, 0)          R9 = 4025h (16421, 16421)
R2 = 406Dh (16493, 16493)          RA = 4000h (16384, 16384)
R3 = 0E94h (3732, 3732)          RB = 0000h (0, 0)
R4 = 002Fh (47, 47)          RC = 0000h (0, 0)
R5 = 0048h (72, 72)          RD = 4005h (16389, 16389)
R6 = 0000h (0, 0)          RE = 0000h (0, 0)
R7 = 0119h (281, 281)          RF = 0000h (0, 0)

Single Step:

002F:  93        GHI R3     (1 bytes)
0030:  B6        PHI R6     (1 bytes)

Halt Address = 0030h (48)
D = 0Eh (14, 14)
DF/Carry = 0 (false)
RP = R4 (4) = 0030h (48)
RX = R2 (2) = 406Dh (16493)
Q Flag = 1 (true)
R0 = 0029h (41, 41)          R8 = 4077h (16503, 16503)
R1 = 0000h (0, 0)          R9 = 4025h (16421, 16421)
R2 = 406Dh (16493, 16493)          RA = 4000h (16384, 16384)
R3 = 0E94h (3732, 3732)          RB = 0000h (0, 0)
R4 = 0030h (48, 48)          RC = 0000h (0, 0)
R5 = 0048h (72, 72)          RD = 4005h (16389, 16389)
R6 = 0000h (0, 0)          RE = 0000h (0, 0)
R7 = 0119h (281, 281)          RF = 0000h (0, 0)


Single Step:

0030:  B6        PHI R6     (1 bytes)
0031:  83        GLO R3     (1 bytes)

Halt Address = 0031h (49)
D = 0Eh (14, 14)
DF/Carry = 0 (false)
RP = R4 (4) = 0031h (49)
RX = R2 (2) = 406Dh (16493)
Q Flag = 1 (true)
R0 = 0029h (41, 41)          R8 = 4077h (16503, 16503)
R1 = 0000h (0, 0)          R9 = 4025h (16421, 16421)
R2 = 406Dh (16493, 16493)          RA = 4000h (16384, 16384)
R3 = 0E94h (3732, 3732)          RB = 0000h (0, 0)
R4 = 0031h (49, 49)          RC = 0000h (0, 0)
R5 = 0048h (72, 72)          RD = 4005h (16389, 16389)
R6 = 0E00h (3584, 3584)          RE = 0000h (0, 0)
R7 = 0119h (281, 281)          RF = 0000h (0, 0)

Single Step:

0031:  83        GLO R3     (1 bytes)
0032:  A6        PLO R6     (1 bytes)

Halt Address = 0032h (50)
D = 94h (148, -108)
DF/Carry = 0 (false)
RP = R4 (4) = 0032h (50)
RX = R2 (2) = 406Dh (16493)
Q Flag = 1 (true)
R0 = 0029h (41, 41)          R8 = 4077h (16503, 16503)
R1 = 0000h (0, 0)          R9 = 4025h (16421, 16421)
R2 = 406Dh (16493, 16493)          RA = 4000h (16384, 16384)
R3 = 0E94h (3732, 3732)          RB = 0000h (0, 0)
R4 = 0032h (50, 50)          RC = 0000h (0, 0)
R5 = 0048h (72, 72)          RD = 4005h (16389, 16389)
R6 = 0E00h (3584, 3584)          RE = 0000h (0, 0)
R7 = 0119h (281, 281)          RF = 0000h (0, 0)

Single Step:

0032:  A6        PLO R6     (1 bytes)
0033:  46        LDA R6     (1 bytes)

Halt Address = 0033h (51)
D = 94h (148, -108)
DF/Carry = 0 (false)
RP = R4 (4) = 0033h (51)
RX = R2 (2) = 406Dh (16493)
Q Flag = 1 (true)
R0 = 0029h (41, 41)          R8 = 4077h (16503, 16503)
R1 = 0000h (0, 0)          R9 = 4025h (16421, 16421)
R2 = 406Dh (16493, 16493)          RA = 4000h (16384, 16384)
R3 = 0E94h (3732, 3732)          RB = 0000h (0, 0)
R4 = 0033h (51, 51)          RC = 0000h (0, 0)
R5 = 0048h (72, 72)          RD = 4005h (16389, 16389)
R6 = 0E94h (3732, 3732)          RE = 0000h (0, 0)
R7 = 0119h (281, 281)          RF = 0000h (0, 0)

Single Step:

0033:  46        LDA R6     (1 bytes)
0034:  B3        PHI R3     (1 bytes)

Halt Address = 0034h (52)
D = 00h (0, 0)
DF/Carry = 0 (false)
RP = R4 (4) = 0034h (52)
RX = R2 (2) = 406Dh (16493)
Q Flag = 1 (true)
R0 = 0029h (41, 41)          R8 = 4077h (16503, 16503)
R1 = 0000h (0, 0)          R9 = 4025h (16421, 16421)
R2 = 406Dh (16493, 16493)          RA = 4000h (16384, 16384)
R3 = 0E94h (3732, 3732)          RB = 0000h (0, 0)
R4 = 0034h (52, 52)          RC = 0000h (0, 0)
R5 = 0048h (72, 72)          RD = 4005h (16389, 16389)
R6 = 0E95h (3733, 3733)          RE = 0000h (0, 0)
R7 = 0119h (281, 281)          RF = 0000h (0, 0)

Single Step:

0034:  B3        PHI R3     (1 bytes)
0035:  46        LDA R6     (1 bytes)

Halt Address = 0035h (53)
D = 00h (0, 0)
DF/Carry = 0 (false)
RP = R4 (4) = 0035h (53)
RX = R2 (2) = 406Dh (16493)
Q Flag = 1 (true)
R0 = 0029h (41, 41)          R8 = 4077h (16503, 16503)
R1 = 0000h (0, 0)          R9 = 4025h (16421, 16421)
R2 = 406Dh (16493, 16493)          RA = 4000h (16384, 16384)
R3 = 0094h (148, 148)          RB = 0000h (0, 0)
R4 = 0035h (53, 53)          RC = 0000h (0, 0)
R5 = 0048h (72, 72)          RD = 4005h (16389, 16389)
R6 = 0E95h (3733, 3733)          RE = 0000h (0, 0)
R7 = 0119h (281, 281)          RF = 0000h (0, 0)

Single Step:

0035:  46        LDA R6     (1 bytes)
0036:  A3        PLO R3     (1 bytes)

Halt Address = 0036h (54)
D = 54h (84, 84)
DF/Carry = 0 (false)
RP = R4 (4) = 0036h (54)
RX = R2 (2) = 406Dh (16493)
Q Flag = 1 (true)
R0 = 0029h (41, 41)          R8 = 4077h (16503, 16503)
R1 = 0000h (0, 0)          R9 = 4025h (16421, 16421)
R2 = 406Dh (16493, 16493)          RA = 4000h (16384, 16384)
R3 = 0094h (148, 148)          RB = 0000h (0, 0)
R4 = 0036h (54, 54)          RC = 0000h (0, 0)
R5 = 0048h (72, 72)          RD = 4005h (16389, 16389)
R6 = 0E96h (3734, 3734)          RE = 0000h (0, 0)
R7 = 0119h (281, 281)          RF = 0000h (0, 0)

Single Step:

0036:  A3        PLO R3     (1 bytes)
0037:  30 29     BR 0029     (2 bytes)

Halt Address = 0037h (55)
D = 54h (84, 84)
DF/Carry = 0 (false)
RP = R4 (4) = 0037h (55)
RX = R2 (2) = 406Dh (16493)
Q Flag = 1 (true)
R0 = 0029h (41, 41)          R8 = 4077h (16503, 16503)
R1 = 0000h (0, 0)          R9 = 4025h (16421, 16421)
R2 = 406Dh (16493, 16493)          RA = 4000h (16384, 16384)
R3 = 0054h (84, 84)          RB = 0000h (0, 0)
R4 = 0037h (55, 55)          RC = 0000h (0, 0)
R5 = 0048h (72, 72)          RD = 4005h (16389, 16389)
R6 = 0E96h (3734, 3734)          RE = 0000h (0, 0)
R7 = 0119h (281, 281)          RF = 0000h (0, 0)

Single Step:

0037:  30 29     BR 0029     (2 bytes)
0029:  D3        SEP R3     (1 bytes)

Halt Address = 0029h (41)
D = 54h (84, 84)
DF/Carry = 0 (false)
RP = R4 (4) = 0029h (41)
RX = R2 (2) = 406Dh (16493)
Q Flag = 1 (true)
R0 = 0029h (41, 41)          R8 = 4077h (16503, 16503)
R1 = 0000h (0, 0)          R9 = 4025h (16421, 16421)
R2 = 406Dh (16493, 16493)          RA = 4000h (16384, 16384)
R3 = 0054h (84, 84)          RB = 0000h (0, 0)
R4 = 0029h (41, 41)          RC = 0000h (0, 0)
R5 = 0048h (72, 72)          RD = 4005h (16389, 16389)
R6 = 0E96h (3734, 3734)          RE = 0000h (0, 0)
R7 = 0119h (281, 281)          RF = 0000h (0, 0)

Single Step:

0029:  D3        SEP R3     (1 bytes)
0054:  46        LDA R6     (1 bytes)

Halt Address = 0054h (84)
D = 54h (84, 84)
DF/Carry = 0 (false)
RP = R3 (3) = 0054h (84)
RX = R2 (2) = 406Dh (16493)
Q Flag = 1 (true)
R0 = 0029h (41, 41)          R8 = 4077h (16503, 16503)
R1 = 0000h (0, 0)          R9 = 4025h (16421, 16421)
R2 = 406Dh (16493, 16493)          RA = 4000h (16384, 16384)
R3 = 0054h (84, 84)          RB = 0000h (0, 0)
R4 = 002Ah (42, 42)          RC = 0000h (0, 0)
R5 = 0048h (72, 72)          RD = 4005h (16389, 16389)
R6 = 0E96h (3734, 3734)          RE = 0000h (0, 0)
R7 = 0119h (281, 281)          RF = 0000h (0, 0)

Single Step:

0054:  46        LDA R6     (1 bytes)
0055:  BE        PHI RE     (1 bytes)

Halt Address = 0055h (85)
D = 01h (1, 1)
DF/Carry = 0 (false)
RP = R3 (3) = 0055h (85)
RX = R2 (2) = 406Dh (16493)
Q Flag = 1 (true)
R0 = 0029h (41, 41)          R8 = 4077h (16503, 16503)
R1 = 0000h (0, 0)          R9 = 4025h (16421, 16421)
R2 = 406Dh (16493, 16493)          RA = 4000h (16384, 16384)
R3 = 0055h (85, 85)          RB = 0000h (0, 0)
R4 = 002Ah (42, 42)          RC = 0000h (0, 0)
R5 = 0048h (72, 72)          RD = 4005h (16389, 16389)
R6 = 0E97h (3735, 3735)          RE = 0000h (0, 0)
R7 = 0119h (281, 281)          RF = 0000h (0, 0)


Single Step:

0055:  BE        PHI RE     (1 bytes)
0056:  46        LDA R6     (1 bytes)

Halt Address = 0056h (86)
D = 01h (1, 1)
DF/Carry = 0 (false)
RP = R3 (3) = 0056h (86)
RX = R2 (2) = 406Dh (16493)
Q Flag = 1 (true)
R0 = 0029h (41, 41)          R8 = 4077h (16503, 16503)
R1 = 0000h (0, 0)          R9 = 4025h (16421, 16421)
R2 = 406Dh (16493, 16493)          RA = 4000h (16384, 16384)
R3 = 0056h (86, 86)          RB = 0000h (0, 0)
R4 = 002Ah (42, 42)          RC = 0000h (0, 0)
R5 = 0048h (72, 72)          RD = 4005h (16389, 16389)
R6 = 0E97h (3735, 3735)          RE = 0100h (256, 256)
R7 = 0119h (281, 281)          RF = 0000h (0, 0)

Single Step:

0056:  46        LDA R6     (1 bytes)
0057:  AE        PLO RE     (1 bytes)

Halt Address = 0057h (87)
D = 00h (0, 0)
DF/Carry = 0 (false)
RP = R3 (3) = 0057h (87)
RX = R2 (2) = 406Dh (16493)
Q Flag = 1 (true)
R0 = 0029h (41, 41)          R8 = 4077h (16503, 16503)
R1 = 0000h (0, 0)          R9 = 4025h (16421, 16421)
R2 = 406Dh (16493, 16493)          RA = 4000h (16384, 16384)
R3 = 0057h (87, 87)          RB = 0000h (0, 0)
R4 = 002Ah (42, 42)          RC = 0000h (0, 0)
R5 = 0048h (72, 72)          RD = 4005h (16389, 16389)
R6 = 0E98h (3736, 3736)          RE = 0100h (256, 256)
R7 = 0119h (281, 281)          RF = 0000h (0, 0)

Single Step:

0057:  AE        PLO RE     (1 bytes)
0058:  F0        LDX     (1 bytes)

Halt Address = 0058h (88)
D = 00h (0, 0)
DF/Carry = 0 (false)
RP = R3 (3) = 0058h (88)
RX = R2 (2) = 406Dh (16493)
Q Flag = 1 (true)
R0 = 0029h (41, 41)          R8 = 4077h (16503, 16503)
R1 = 0000h (0, 0)          R9 = 4025h (16421, 16421)
R2 = 406Dh (16493, 16493)          RA = 4000h (16384, 16384)
R3 = 0058h (88, 88)          RB = 0000h (0, 0)
R4 = 002Ah (42, 42)          RC = 0000h (0, 0)
R5 = 0048h (72, 72)          RD = 4005h (16389, 16389)
R6 = 0E98h (3736, 3736)          RE = 0100h (256, 256)
R7 = 0119h (281, 281)          RF = 0000h (0, 0)

Single Step:

0058:  F0        LDX     (1 bytes)
0059:  F0        LDX     (1 bytes)

Halt Address = 0059h (89)
D = 00h (0, 0)
DF/Carry = 0 (false)
RP = R3 (3) = 0059h (89)
RX = R2 (2) = 406Dh (16493)
Q Flag = 1 (true)
R0 = 0029h (41, 41)          R8 = 4077h (16503, 16503)
R1 = 0000h (0, 0)          R9 = 4025h (16421, 16421)
R2 = 406Dh (16493, 16493)          RA = 4000h (16384, 16384)
R3 = 0059h (89, 89)          RB = 0000h (0, 0)
R4 = 002Ah (42, 42)          RC = 0000h (0, 0)
R5 = 0048h (72, 72)          RD = 4005h (16389, 16389)
R6 = 0E98h (3736, 3736)          RE = 0100h (256, 256)
R7 = 0119h (281, 281)          RF = 0000h (0, 0)

Single Step:

0059:  F0        LDX     (1 bytes)
005A:  2E        DEC RE     (1 bytes)

Halt Address = 005Ah (90)
D = 00h (0, 0)
DF/Carry = 0 (false)
RP = R3 (3) = 005Ah (90)
RX = R2 (2) = 406Dh (16493)
Q Flag = 1 (true)
R0 = 0029h (41, 41)          R8 = 4077h (16503, 16503)
R1 = 0000h (0, 0)          R9 = 4025h (16421, 16421)
R2 = 406Dh (16493, 16493)          RA = 4000h (16384, 16384)
R3 = 005Ah (90, 90)          RB = 0000h (0, 0)
R4 = 002Ah (42, 42)          RC = 0000h (0, 0)
R5 = 0048h (72, 72)          RD = 4005h (16389, 16389)
R6 = 0E98h (3736, 3736)          RE = 0100h (256, 256)
R7 = 0119h (281, 281)          RF = 0000h (0, 0)

Single Step:

005A:  2E        DEC RE     (1 bytes)
005B:  9E        GHI RE     (1 bytes)

Halt Address = 005Bh (91)
D = 00h (0, 0)
DF/Carry = 0 (false)
RP = R3 (3) = 005Bh (91)
RX = R2 (2) = 406Dh (16493)
Q Flag = 1 (true)
R0 = 0029h (41, 41)          R8 = 4077h (16503, 16503)
R1 = 0000h (0, 0)          R9 = 4025h (16421, 16421)
R2 = 406Dh (16493, 16493)          RA = 4000h (16384, 16384)
R3 = 005Bh (91, 91)          RB = 0000h (0, 0)
R4 = 002Ah (42, 42)          RC = 0000h (0, 0)
R5 = 0048h (72, 72)          RD = 4005h (16389, 16389)
R6 = 0E98h (3736, 3736)          RE = 00FFh (255, 255)
R7 = 0119h (281, 281)          RF = 0000h (0, 0)

Single Step:

005B:  9E        GHI RE     (1 bytes)
005C:  3A 58     BNZ 0058     (2 bytes)

Halt Address = 005Ch (92)
D = 00h (0, 0)
DF/Carry = 0 (false)
RP = R3 (3) = 005Ch (92)
RX = R2 (2) = 406Dh (16493)
Q Flag = 1 (true)
R0 = 0029h (41, 41)          R8 = 4077h (16503, 16503)
R1 = 0000h (0, 0)          R9 = 4025h (16421, 16421)
R2 = 406Dh (16493, 16493)          RA = 4000h (16384, 16384)
R3 = 005Ch (92, 92)          RB = 0000h (0, 0)
R4 = 002Ah (42, 42)          RC = 0000h (0, 0)
R5 = 0048h (72, 72)          RD = 4005h (16389, 16389)
R6 = 0E98h (3736, 3736)          RE = 00FFh (255, 255)
R7 = 0119h (281, 281)          RF = 0000h (0, 0)

Single Step:

005C:  3A 58     BNZ 0058     (2 bytes)
005E:  8E        GLO RE     (1 bytes)

Halt Address = 005Eh (94)
D = 00h (0, 0)
DF/Carry = 0 (false)
RP = R3 (3) = 005Eh (94)
RX = R2 (2) = 406Dh (16493)
Q Flag = 1 (true)
R0 = 0029h (41, 41)          R8 = 4077h (16503, 16503)
R1 = 0000h (0, 0)          R9 = 4025h (16421, 16421)
R2 = 406Dh (16493, 16493)          RA = 4000h (16384, 16384)
R3 = 005Eh (94, 94)          RB = 0000h (0, 0)
R4 = 002Ah (42, 42)          RC = 0000h (0, 0)
R5 = 0048h (72, 72)          RD = 4005h (16389, 16389)
R6 = 0E98h (3736, 3736)          RE = 00FFh (255, 255)
R7 = 0119h (281, 281)          RF = 0000h (0, 0)

Single Step:

005E:  8E        GLO RE     (1 bytes)
005F:  3A 5A     BNZ 005A     (2 bytes)

Halt Address = 005Fh (95)
D = FFh (255, -1)
DF/Carry = 0 (false)
RP = R3 (3) = 005Fh (95)
RX = R2 (2) = 406Dh (16493)
Q Flag = 1 (true)
R0 = 0029h (41, 41)          R8 = 4077h (16503, 16503)
R1 = 0000h (0, 0)          R9 = 4025h (16421, 16421)
R2 = 406Dh (16493, 16493)          RA = 4000h (16384, 16384)
R3 = 005Fh (95, 95)          RB = 0000h (0, 0)
R4 = 002Ah (42, 42)          RC = 0000h (0, 0)
R5 = 0048h (72, 72)          RD = 4005h (16389, 16389)
R6 = 0E98h (3736, 3736)          RE = 00FFh (255, 255)
R7 = 0119h (281, 281)          RF = 0000h (0, 0)

Single Step:

005F:  3A 5A     BNZ 005A     (2 bytes)
005A:  2E        DEC RE     (1 bytes)

Halt Address = 005Ah (90)
D = FFh (255, -1)
DF/Carry = 0 (false)
RP = R3 (3) = 005Ah (90)
RX = R2 (2) = 406Dh (16493)
Q Flag = 1 (true)
R0 = 0029h (41, 41)          R8 = 4077h (16503, 16503)
R1 = 0000h (0, 0)          R9 = 4025h (16421, 16421)
R2 = 406Dh (16493, 16493)          RA = 4000h (16384, 16384)
R3 = 005Ah (90, 90)          RB = 0000h (0, 0)
R4 = 002Ah (42, 42)          RC = 0000h (0, 0)
R5 = 0048h (72, 72)          RD = 4005h (16389, 16389)
R6 = 0E98h (3736, 3736)          RE = 00FFh (255, 255)
R7 = 0119h (281, 281)          RF = 0000h (0, 0)



Single Step:

005A:  2E        DEC RE     (1 bytes)
005B:  9E        GHI RE     (1 bytes)

Halt Address = 005Bh (91)
D = FFh (255, -1)
DF/Carry = 0 (false)
RP = R3 (3) = 005Bh (91)
RX = R2 (2) = 406Dh (16493)
Q Flag = 1 (true)
R0 = 0029h (41, 41)          R8 = 4077h (16503, 16503)
R1 = 0000h (0, 0)          R9 = 4025h (16421, 16421)
R2 = 406Dh (16493, 16493)          RA = 4000h (16384, 16384)
R3 = 005Bh (91, 91)          RB = 0000h (0, 0)
R4 = 002Ah (42, 42)          RC = 0000h (0, 0)
R5 = 0048h (72, 72)          RD = 4005h (16389, 16389)
R6 = 0E98h (3736, 3736)          RE = 00FEh (254, 254)
R7 = 0119h (281, 281)          RF = 0000h (0, 0)

Single Step:

005B:  9E        GHI RE     (1 bytes)
005C:  3A 58     BNZ 0058     (2 bytes)

Halt Address = 005Ch (92)
D = 00h (0, 0)
DF/Carry = 0 (false)
RP = R3 (3) = 005Ch (92)
RX = R2 (2) = 406Dh (16493)
Q Flag = 1 (true)
R0 = 0029h (41, 41)          R8 = 4077h (16503, 16503)
R1 = 0000h (0, 0)          R9 = 4025h (16421, 16421)
R2 = 406Dh (16493, 16493)          RA = 4000h (16384, 16384)
R3 = 005Ch (92, 92)          RB = 0000h (0, 0)
R4 = 002Ah (42, 42)          RC = 0000h (0, 0)
R5 = 0048h (72, 72)          RD = 4005h (16389, 16389)
R6 = 0E98h (3736, 3736)          RE = 00FEh (254, 254)
R7 = 0119h (281, 281)          RF = 0000h (0, 0)

Single Step:

005C:  3A 58     BNZ 0058     (2 bytes)
005E:  8E        GLO RE     (1 bytes)

Halt Address = 005Eh (94)
D = 00h (0, 0)
DF/Carry = 0 (false)
RP = R3 (3) = 005Eh (94)
RX = R2 (2) = 406Dh (16493)
Q Flag = 1 (true)
R0 = 0029h (41, 41)          R8 = 4077h (16503, 16503)
R1 = 0000h (0, 0)          R9 = 4025h (16421, 16421)
R2 = 406Dh (16493, 16493)          RA = 4000h (16384, 16384)
R3 = 005Eh (94, 94)          RB = 0000h (0, 0)
R4 = 002Ah (42, 42)          RC = 0000h (0, 0)
R5 = 0048h (72, 72)          RD = 4005h (16389, 16389)
R6 = 0E98h (3736, 3736)          RE = 00FEh (254, 254)
R7 = 0119h (281, 281)          RF = 0000h (0, 0)

Single Step:

005E:  8E        GLO RE     (1 bytes)
005F:  3A 5A     BNZ 005A     (2 bytes)

Halt Address = 005Fh (95)
D = FEh (254, -2)
DF/Carry = 0 (false)
RP = R3 (3) = 005Fh (95)
RX = R2 (2) = 406Dh (16493)
Q Flag = 1 (true)
R0 = 0029h (41, 41)          R8 = 4077h (16503, 16503)
R1 = 0000h (0, 0)          R9 = 4025h (16421, 16421)
R2 = 406Dh (16493, 16493)          RA = 4000h (16384, 16384)
R3 = 005Fh (95, 95)          RB = 0000h (0, 0)
R4 = 002Ah (42, 42)          RC = 0000h (0, 0)
R5 = 0048h (72, 72)          RD = 4005h (16389, 16389)
R6 = 0E98h (3736, 3736)          RE = 00FEh (254, 254)
R7 = 0119h (281, 281)          RF = 0000h (0, 0)

Single Step:

005F:  3A 5A     BNZ 005A     (2 bytes)
005A:  2E        DEC RE     (1 bytes)

Halt Address = 005Ah (90)
D = FEh (254, -2)
DF/Carry = 0 (false)
RP = R3 (3) = 005Ah (90)
RX = R2 (2) = 406Dh (16493)
Q Flag = 1 (true)
R0 = 0029h (41, 41)          R8 = 4077h (16503, 16503)
R1 = 0000h (0, 0)          R9 = 4025h (16421, 16421)
R2 = 406Dh (16493, 16493)          RA = 4000h (16384, 16384)
R3 = 005Ah (90, 90)          RB = 0000h (0, 0)
R4 = 002Ah (42, 42)          RC = 0000h (0, 0)
R5 = 0048h (72, 72)          RD = 4005h (16389, 16389)
R6 = 0E98h (3736, 3736)          RE = 00FEh (254, 254)
R7 = 0119h (281, 281)          RF = 0000h (0, 0)

Single Step:

005A:  2E        DEC RE     (1 bytes)
005B:  9E        GHI RE     (1 bytes)

Halt Address = 005Bh (91)
D = FEh (254, -2)
DF/Carry = 0 (false)
RP = R3 (3) = 005Bh (91)
RX = R2 (2) = 406Dh (16493)
Q Flag = 1 (true)
R0 = 0029h (41, 41)          R8 = 4077h (16503, 16503)
R1 = 0000h (0, 0)          R9 = 4025h (16421, 16421)
R2 = 406Dh (16493, 16493)          RA = 4000h (16384, 16384)
R3 = 005Bh (91, 91)          RB = 0000h (0, 0)
R4 = 002Ah (42, 42)          RC = 0000h (0, 0)
R5 = 0048h (72, 72)          RD = 4005h (16389, 16389)
R6 = 0E98h (3736, 3736)          RE = 00FDh (253, 253)
R7 = 0119h (281, 281)          RF = 0000h (0, 0)

Single Step:

005B:  9E        GHI RE     (1 bytes)
005C:  3A 58     BNZ 0058     (2 bytes)

Halt Address = 005Ch (92)
D = 00h (0, 0)
DF/Carry = 0 (false)
RP = R3 (3) = 005Ch (92)
RX = R2 (2) = 406Dh (16493)
Q Flag = 1 (true)
R0 = 0029h (41, 41)          R8 = 4077h (16503, 16503)
R1 = 0000h (0, 0)          R9 = 4025h (16421, 16421)
R2 = 406Dh (16493, 16493)          RA = 4000h (16384, 16384)
R3 = 005Ch (92, 92)          RB = 0000h (0, 0)
R4 = 002Ah (42, 42)          RC = 0000h (0, 0)
R5 = 0048h (72, 72)          RD = 4005h (16389, 16389)
R6 = 0E98h (3736, 3736)          RE = 00FDh (253, 253)
R7 = 0119h (281, 281)          RF = 0000h (0, 0)

Single Step:

005C:  3A 58     BNZ 0058     (2 bytes)
005E:  8E        GLO RE     (1 bytes)

Halt Address = 005Eh (94)
D = 00h (0, 0)
DF/Carry = 0 (false)
RP = R3 (3) = 005Eh (94)
RX = R2 (2) = 406Dh (16493)
Q Flag = 1 (true)
R0 = 0029h (41, 41)          R8 = 4077h (16503, 16503)
R1 = 0000h (0, 0)          R9 = 4025h (16421, 16421)
R2 = 406Dh (16493, 16493)          RA = 4000h (16384, 16384)
R3 = 005Eh (94, 94)          RB = 0000h (0, 0)
R4 = 002Ah (42, 42)          RC = 0000h (0, 0)
R5 = 0048h (72, 72)          RD = 4005h (16389, 16389)
R6 = 0E98h (3736, 3736)          RE = 00FDh (253, 253)
R7 = 0119h (281, 281)          RF = 0000h (0, 0)

Single Step:

005E:  8E        GLO RE     (1 bytes)
005F:  3A 5A     BNZ 005A     (2 bytes)

Halt Address = 005Fh (95)
D = FDh (253, -3)
DF/Carry = 0 (false)
RP = R3 (3) = 005Fh (95)
RX = R2 (2) = 406Dh (16493)
Q Flag = 1 (true)
R0 = 0029h (41, 41)          R8 = 4077h (16503, 16503)
R1 = 0000h (0, 0)          R9 = 4025h (16421, 16421)
R2 = 406Dh (16493, 16493)          RA = 4000h (16384, 16384)
R3 = 005Fh (95, 95)          RB = 0000h (0, 0)
R4 = 002Ah (42, 42)          RC = 0000h (0, 0)
R5 = 0048h (72, 72)          RD = 4005h (16389, 16389)
R6 = 0E98h (3736, 3736)          RE = 00FDh (253, 253)
R7 = 0119h (281, 281)          RF = 0000h (0, 0)

Single Step:

005F:  3A 5A     BNZ 005A     (2 bytes)
005A:  2E        DEC RE     (1 bytes)

Halt Address = 005Ah (90)
D = FDh (253, -3)
DF/Carry = 0 (false)
RP = R3 (3) = 005Ah (90)
RX = R2 (2) = 406Dh (16493)
Q Flag = 1 (true)
R0 = 0029h (41, 41)          R8 = 4077h (16503, 16503)
R1 = 0000h (0, 0)          R9 = 4025h (16421, 16421)
R2 = 406Dh (16493, 16493)          RA = 4000h (16384, 16384)
R3 = 005Ah (90, 90)          RB = 0000h (0, 0)
R4 = 002Ah (42, 42)          RC = 0000h (0, 0)
R5 = 0048h (72, 72)          RD = 4005h (16389, 16389)
R6 = 0E98h (3736, 3736)          RE = 00FDh (253, 253)
R7 = 0119h (281, 281)          RF = 0000h (0, 0)


Single Step:

005A:  2E        DEC RE     (1 bytes)
005B:  9E        GHI RE     (1 bytes)

Halt Address = 005Bh (91)
D = FDh (253, -3)
DF/Carry = 0 (false)
RP = R3 (3) = 005Bh (91)
RX = R2 (2) = 406Dh (16493)
Q Flag = 1 (true)
R0 = 0029h (41, 41)          R8 = 4077h (16503, 16503)
R1 = 0000h (0, 0)          R9 = 4025h (16421, 16421)
R2 = 406Dh (16493, 16493)          RA = 4000h (16384, 16384)
R3 = 005Bh (91, 91)          RB = 0000h (0, 0)
R4 = 002Ah (42, 42)          RC = 0000h (0, 0)
R5 = 0048h (72, 72)          RD = 4005h (16389, 16389)
R6 = 0E98h (3736, 3736)          RE = 00FCh (252, 252)
R7 = 0119h (281, 281)          RF = 0000h (0, 0)

Single Step:

005B:  9E        GHI RE     (1 bytes)
005C:  3A 58     BNZ 0058     (2 bytes)

Halt Address = 005Ch (92)
D = 00h (0, 0)
DF/Carry = 0 (false)
RP = R3 (3) = 005Ch (92)
RX = R2 (2) = 406Dh (16493)
Q Flag = 1 (true)
R0 = 0029h (41, 41)          R8 = 4077h (16503, 16503)
R1 = 0000h (0, 0)          R9 = 4025h (16421, 16421)
R2 = 406Dh (16493, 16493)          RA = 4000h (16384, 16384)
R3 = 005Ch (92, 92)          RB = 0000h (0, 0)
R4 = 002Ah (42, 42)          RC = 0000h (0, 0)
R5 = 0048h (72, 72)          RD = 4005h (16389, 16389)
R6 = 0E98h (3736, 3736)          RE = 00FCh (252, 252)
R7 = 0119h (281, 281)          RF = 0000h (0, 0)

Single Step:

005C:  3A 58     BNZ 0058     (2 bytes)
005E:  8E        GLO RE     (1 bytes)

Halt Address = 005Eh (94)
D = 00h (0, 0)
DF/Carry = 0 (false)
RP = R3 (3) = 005Eh (94)
RX = R2 (2) = 406Dh (16493)
Q Flag = 1 (true)
R0 = 0029h (41, 41)          R8 = 4077h (16503, 16503)
R1 = 0000h (0, 0)          R9 = 4025h (16421, 16421)
R2 = 406Dh (16493, 16493)          RA = 4000h (16384, 16384)
R3 = 005Eh (94, 94)          RB = 0000h (0, 0)
R4 = 002Ah (42, 42)          RC = 0000h (0, 0)
R5 = 0048h (72, 72)          RD = 4005h (16389, 16389)
R6 = 0E98h (3736, 3736)          RE = 00FCh (252, 252)
R7 = 0119h (281, 281)          RF = 0000h (0, 0)

Single Step:

005E:  8E        GLO RE     (1 bytes)
005F:  3A 5A     BNZ 005A     (2 bytes)

Halt Address = 005Fh (95)
D = FCh (252, -4)
DF/Carry = 0 (false)
RP = R3 (3) = 005Fh (95)
RX = R2 (2) = 406Dh (16493)
Q Flag = 1 (true)
R0 = 0029h (41, 41)          R8 = 4077h (16503, 16503)
R1 = 0000h (0, 0)          R9 = 4025h (16421, 16421)
R2 = 406Dh (16493, 16493)          RA = 4000h (16384, 16384)
R3 = 005Fh (95, 95)          RB = 0000h (0, 0)
R4 = 002Ah (42, 42)          RC = 0000h (0, 0)
R5 = 0048h (72, 72)          RD = 4005h (16389, 16389)
R6 = 0E98h (3736, 3736)          RE = 00FCh (252, 252)
R7 = 0119h (281, 281)          RF = 0000h (0, 0)

Single Step:

005F:  3A 5A     BNZ 005A     (2 bytes)
005A:  2E        DEC RE     (1 bytes)

Halt Address = 005Ah (90)
D = FCh (252, -4)
DF/Carry = 0 (false)
RP = R3 (3) = 005Ah (90)
RX = R2 (2) = 406Dh (16493)
Q Flag = 1 (true)
R0 = 0029h (41, 41)          R8 = 4077h (16503, 16503)
R1 = 0000h (0, 0)          R9 = 4025h (16421, 16421)
R2 = 406Dh (16493, 16493)          RA = 4000h (16384, 16384)
R3 = 005Ah (90, 90)          RB = 0000h (0, 0)
R4 = 002Ah (42, 42)          RC = 0000h (0, 0)
R5 = 0048h (72, 72)          RD = 4005h (16389, 16389)
R6 = 0E98h (3736, 3736)          RE = 00FCh (252, 252)
R7 = 0119h (281, 281)          RF = 0000h (0, 0)

Single Step:

005A:  2E        DEC RE     (1 bytes)
005B:  9E        GHI RE     (1 bytes)

Halt Address = 005Bh (91)
D = FCh (252, -4)
DF/Carry = 0 (false)
RP = R3 (3) = 005Bh (91)
RX = R2 (2) = 406Dh (16493)
Q Flag = 1 (true)
R0 = 0029h (41, 41)          R8 = 4077h (16503, 16503)
R1 = 0000h (0, 0)          R9 = 4025h (16421, 16421)
R2 = 406Dh (16493, 16493)          RA = 4000h (16384, 16384)
R3 = 005Bh (91, 91)          RB = 0000h (0, 0)
R4 = 002Ah (42, 42)          RC = 0000h (0, 0)
R5 = 0048h (72, 72)          RD = 4005h (16389, 16389)
R6 = 0E98h (3736, 3736)          RE = 00FBh (251, 251)
R7 = 0119h (281, 281)          RF = 0000h (0, 0)

Single Step:

005B:  9E        GHI RE     (1 bytes)
005C:  3A 58     BNZ 0058     (2 bytes)

Halt Address = 005Ch (92)
D = 00h (0, 0)
DF/Carry = 0 (false)
RP = R3 (3) = 005Ch (92)
RX = R2 (2) = 406Dh (16493)
Q Flag = 1 (true)
R0 = 0029h (41, 41)          R8 = 4077h (16503, 16503)
R1 = 0000h (0, 0)          R9 = 4025h (16421, 16421)
R2 = 406Dh (16493, 16493)          RA = 4000h (16384, 16384)
R3 = 005Ch (92, 92)          RB = 0000h (0, 0)
R4 = 002Ah (42, 42)          RC = 0000h (0, 0)
R5 = 0048h (72, 72)          RD = 4005h (16389, 16389)
R6 = 0E98h (3736, 3736)          RE = 00FBh (251, 251)
R7 = 0119h (281, 281)          RF = 0000h (0, 0)

Single Step:

005C:  3A 58     BNZ 0058     (2 bytes)
005E:  8E        GLO RE     (1 bytes)

Halt Address = 005Eh (94)
D = 00h (0, 0)
DF/Carry = 0 (false)
RP = R3 (3) = 005Eh (94)
RX = R2 (2) = 406Dh (16493)
Q Flag = 1 (true)
R0 = 0029h (41, 41)          R8 = 4077h (16503, 16503)
R1 = 0000h (0, 0)          R9 = 4025h (16421, 16421)
R2 = 406Dh (16493, 16493)          RA = 4000h (16384, 16384)
R3 = 005Eh (94, 94)          RB = 0000h (0, 0)
R4 = 002Ah (42, 42)          RC = 0000h (0, 0)
R5 = 0048h (72, 72)          RD = 4005h (16389, 16389)
R6 = 0E98h (3736, 3736)          RE = 00FBh (251, 251)
R7 = 0119h (281, 281)          RF = 0000h (0, 0)

Single Step:

005E:  8E        GLO RE     (1 bytes)
005F:  3A 5A     BNZ 005A     (2 bytes)

Halt Address = 005Fh (95)
D = FBh (251, -5)
DF/Carry = 0 (false)
RP = R3 (3) = 005Fh (95)
RX = R2 (2) = 406Dh (16493)
Q Flag = 1 (true)
R0 = 0029h (41, 41)          R8 = 4077h (16503, 16503)
R1 = 0000h (0, 0)          R9 = 4025h (16421, 16421)
R2 = 406Dh (16493, 16493)          RA = 4000h (16384, 16384)
R3 = 005Fh (95, 95)          RB = 0000h (0, 0)
R4 = 002Ah (42, 42)          RC = 0000h (0, 0)
R5 = 0048h (72, 72)          RD = 4005h (16389, 16389)
R6 = 0E98h (3736, 3736)          RE = 00FBh (251, 251)
R7 = 0119h (281, 281)          RF = 0000h (0, 0)

Single Step:

005F:  3A 5A     BNZ 005A     (2 bytes)
005A:  2E        DEC RE     (1 bytes)

Halt Address = 005Ah (90)
D = FBh (251, -5)
DF/Carry = 0 (false)
RP = R3 (3) = 005Ah (90)
RX = R2 (2) = 406Dh (16493)
Q Flag = 1 (true)
R0 = 0029h (41, 41)          R8 = 4077h (16503, 16503)
R1 = 0000h (0, 0)          R9 = 4025h (16421, 16421)
R2 = 406Dh (16493, 16493)          RA = 4000h (16384, 16384)
R3 = 005Ah (90, 90)          RB = 0000h (0, 0)
R4 = 002Ah (42, 42)          RC = 0000h (0, 0)
R5 = 0048h (72, 72)          RD = 4005h (16389, 16389)
R6 = 0E98h (3736, 3736)          RE = 00FBh (251, 251)
R7 = 0119h (281, 281)          RF = 0000h (0, 0)


Single Step:

005A:  2E        DEC RE     (1 bytes)
005B:  9E        GHI RE     (1 bytes)

Halt Address = 005Bh (91)
D = FBh (251, -5)
DF/Carry = 0 (false)
RP = R3 (3) = 005Bh (91)
RX = R2 (2) = 406Dh (16493)
Q Flag = 1 (true)
R0 = 0029h (41, 41)          R8 = 4077h (16503, 16503)
R1 = 0000h (0, 0)          R9 = 4025h (16421, 16421)
R2 = 406Dh (16493, 16493)          RA = 4000h (16384, 16384)
R3 = 005Bh (91, 91)          RB = 0000h (0, 0)
R4 = 002Ah (42, 42)          RC = 0000h (0, 0)
R5 = 0048h (72, 72)          RD = 4005h (16389, 16389)
R6 = 0E98h (3736, 3736)          RE = 00FAh (250, 250)
R7 = 0119h (281, 281)          RF = 0000h (0, 0)

Single Step:

005B:  9E        GHI RE     (1 bytes)
005C:  3A 58     BNZ 0058     (2 bytes)

Halt Address = 005Ch (92)
D = 00h (0, 0)
DF/Carry = 0 (false)
RP = R3 (3) = 005Ch (92)
RX = R2 (2) = 406Dh (16493)
Q Flag = 1 (true)
R0 = 0029h (41, 41)          R8 = 4077h (16503, 16503)
R1 = 0000h (0, 0)          R9 = 4025h (16421, 16421)
R2 = 406Dh (16493, 16493)          RA = 4000h (16384, 16384)
R3 = 005Ch (92, 92)          RB = 0000h (0, 0)
R4 = 002Ah (42, 42)          RC = 0000h (0, 0)
R5 = 0048h (72, 72)          RD = 4005h (16389, 16389)
R6 = 0E98h (3736, 3736)          RE = 00FAh (250, 250)
R7 = 0119h (281, 281)          RF = 0000h (0, 0)

Single Step:

005C:  3A 58     BNZ 0058     (2 bytes)
005E:  8E        GLO RE     (1 bytes)

Halt Address = 005Eh (94)
D = 00h (0, 0)
DF/Carry = 0 (false)
RP = R3 (3) = 005Eh (94)
RX = R2 (2) = 406Dh (16493)
Q Flag = 1 (true)
R0 = 0029h (41, 41)          R8 = 4077h (16503, 16503)
R1 = 0000h (0, 0)          R9 = 4025h (16421, 16421)
R2 = 406Dh (16493, 16493)          RA = 4000h (16384, 16384)
R3 = 005Eh (94, 94)          RB = 0000h (0, 0)
R4 = 002Ah (42, 42)          RC = 0000h (0, 0)
R5 = 0048h (72, 72)          RD = 4005h (16389, 16389)
R6 = 0E98h (3736, 3736)          RE = 00FAh (250, 250)
R7 = 0119h (281, 281)          RF = 0000h (0, 0)

Single Step:

005E:  8E        GLO RE     (1 bytes)
005F:  3A 5A     BNZ 005A     (2 bytes)

Halt Address = 005Fh (95)
D = FAh (250, -6)
DF/Carry = 0 (false)
RP = R3 (3) = 005Fh (95)
RX = R2 (2) = 406Dh (16493)
Q Flag = 1 (true)
R0 = 0029h (41, 41)          R8 = 4077h (16503, 16503)
R1 = 0000h (0, 0)          R9 = 4025h (16421, 16421)
R2 = 406Dh (16493, 16493)          RA = 4000h (16384, 16384)
R3 = 005Fh (95, 95)          RB = 0000h (0, 0)
R4 = 002Ah (42, 42)          RC = 0000h (0, 0)
R5 = 0048h (72, 72)          RD = 4005h (16389, 16389)
R6 = 0E98h (3736, 3736)          RE = 00FAh (250, 250)
R7 = 0119h (281, 281)          RF = 0000h (0, 0)

Single Step:

005F:  3A 5A     BNZ 005A     (2 bytes)
005A:  2E        DEC RE     (1 bytes)

Halt Address = 005Ah (90)
D = FAh (250, -6)
DF/Carry = 0 (false)
RP = R3 (3) = 005Ah (90)
RX = R2 (2) = 406Dh (16493)
Q Flag = 1 (true)
R0 = 0029h (41, 41)          R8 = 4077h (16503, 16503)
R1 = 0000h (0, 0)          R9 = 4025h (16421, 16421)
R2 = 406Dh (16493, 16493)          RA = 4000h (16384, 16384)
R3 = 005Ah (90, 90)          RB = 0000h (0, 0)
R4 = 002Ah (42, 42)          RC = 0000h (0, 0)
R5 = 0048h (72, 72)          RD = 4005h (16389, 16389)
R6 = 0E98h (3736, 3736)          RE = 00FAh (250, 250)
R7 = 0119h (281, 281)          RF = 0000h (0, 0)

Single Step:

005A:  2E        DEC RE     (1 bytes)
005B:  9E        GHI RE     (1 bytes)

Halt Address = 005Bh (91)
D = FAh (250, -6)
DF/Carry = 0 (false)
RP = R3 (3) = 005Bh (91)
RX = R2 (2) = 406Dh (16493)
Q Flag = 1 (true)
R0 = 0029h (41, 41)          R8 = 4077h (16503, 16503)
R1 = 0000h (0, 0)          R9 = 4025h (16421, 16421)
R2 = 406Dh (16493, 16493)          RA = 4000h (16384, 16384)
R3 = 005Bh (91, 91)          RB = 0000h (0, 0)
R4 = 002Ah (42, 42)          RC = 0000h (0, 0)
R5 = 0048h (72, 72)          RD = 4005h (16389, 16389)
R6 = 0E98h (3736, 3736)          RE = 00F9h (249, 249)
R7 = 0119h (281, 281)          RF = 0000h (0, 0)

Single Step:

005B:  9E        GHI RE     (1 bytes)
005C:  3A 58     BNZ 0058     (2 bytes)

Halt Address = 005Ch (92)
D = 00h (0, 0)
DF/Carry = 0 (false)
RP = R3 (3) = 005Ch (92)
RX = R2 (2) = 406Dh (16493)
Q Flag = 1 (true)
R0 = 0029h (41, 41)          R8 = 4077h (16503, 16503)
R1 = 0000h (0, 0)          R9 = 4025h (16421, 16421)
R2 = 406Dh (16493, 16493)          RA = 4000h (16384, 16384)
R3 = 005Ch (92, 92)          RB = 0000h (0, 0)
R4 = 002Ah (42, 42)          RC = 0000h (0, 0)
R5 = 0048h (72, 72)          RD = 4005h (16389, 16389)
R6 = 0E98h (3736, 3736)          RE = 00F9h (249, 249)
R7 = 0119h (281, 281)          RF = 0000h (0, 0)

Single Step:

005C:  3A 58     BNZ 0058     (2 bytes)
005E:  8E        GLO RE     (1 bytes)

Halt Address = 005Eh (94)
D = 00h (0, 0)
DF/Carry = 0 (false)
RP = R3 (3) = 005Eh (94)
RX = R2 (2) = 406Dh (16493)
Q Flag = 1 (true)
R0 = 0029h (41, 41)          R8 = 4077h (16503, 16503)
R1 = 0000h (0, 0)          R9 = 4025h (16421, 16421)
R2 = 406Dh (16493, 16493)          RA = 4000h (16384, 16384)
R3 = 005Eh (94, 94)          RB = 0000h (0, 0)
R4 = 002Ah (42, 42)          RC = 0000h (0, 0)
R5 = 0048h (72, 72)          RD = 4005h (16389, 16389)
R6 = 0E98h (3736, 3736)          RE = 00F9h (249, 249)
R7 = 0119h (281, 281)          RF = 0000h (0, 0)

Single Step:

005E:  8E        GLO RE     (1 bytes)
005F:  3A 5A     BNZ 005A     (2 bytes)

Halt Address = 005Fh (95)
D = F9h (249, -7)
DF/Carry = 0 (false)
RP = R3 (3) = 005Fh (95)
RX = R2 (2) = 406Dh (16493)
Q Flag = 1 (true)
R0 = 0029h (41, 41)          R8 = 4077h (16503, 16503)
R1 = 0000h (0, 0)          R9 = 4025h (16421, 16421)
R2 = 406Dh (16493, 16493)          RA = 4000h (16384, 16384)
R3 = 005Fh (95, 95)          RB = 0000h (0, 0)
R4 = 002Ah (42, 42)          RC = 0000h (0, 0)
R5 = 0048h (72, 72)          RD = 4005h (16389, 16389)
R6 = 0E98h (3736, 3736)          RE = 00F9h (249, 249)
R7 = 0119h (281, 281)          RF = 0000h (0, 0)

Single Step:

005F:  3A 5A     BNZ 005A     (2 bytes)
005A:  2E        DEC RE     (1 bytes)

Halt Address = 005Ah (90)
D = F9h (249, -7)
DF/Carry = 0 (false)
RP = R3 (3) = 005Ah (90)
RX = R2 (2) = 406Dh (16493)
Q Flag = 1 (true)
R0 = 0029h (41, 41)          R8 = 4077h (16503, 16503)
R1 = 0000h (0, 0)          R9 = 4025h (16421, 16421)
R2 = 406Dh (16493, 16493)          RA = 4000h (16384, 16384)
R3 = 005Ah (90, 90)          RB = 0000h (0, 0)
R4 = 002Ah (42, 42)          RC = 0000h (0, 0)
R5 = 0048h (72, 72)          RD = 4005h (16389, 16389)
R6 = 0E98h (3736, 3736)          RE = 00F9h (249, 249)
R7 = 0119h (281, 281)          RF = 0000h (0, 0)


Single Step:

005A:  2E        DEC RE     (1 bytes)
005B:  9E        GHI RE     (1 bytes)

Halt Address = 005Bh (91)
D = F9h (249, -7)
DF/Carry = 0 (false)
RP = R3 (3) = 005Bh (91)
RX = R2 (2) = 406Dh (16493)
Q Flag = 1 (true)
R0 = 0029h (41, 41)          R8 = 4077h (16503, 16503)
R1 = 0000h (0, 0)          R9 = 4025h (16421, 16421)
R2 = 406Dh (16493, 16493)          RA = 4000h (16384, 16384)
R3 = 005Bh (91, 91)          RB = 0000h (0, 0)
R4 = 002Ah (42, 42)          RC = 0000h (0, 0)
R5 = 0048h (72, 72)          RD = 4005h (16389, 16389)
R6 = 0E98h (3736, 3736)          RE = 00F8h (248, 248)
R7 = 0119h (281, 281)          RF = 0000h (0, 0)

Single Step:

005B:  9E        GHI RE     (1 bytes)
005C:  3A 58     BNZ 0058     (2 bytes)

Halt Address = 005Ch (92)
D = 00h (0, 0)
DF/Carry = 0 (false)
RP = R3 (3) = 005Ch (92)
RX = R2 (2) = 406Dh (16493)
Q Flag = 1 (true)
R0 = 0029h (41, 41)          R8 = 4077h (16503, 16503)
R1 = 0000h (0, 0)          R9 = 4025h (16421, 16421)
R2 = 406Dh (16493, 16493)          RA = 4000h (16384, 16384)
R3 = 005Ch (92, 92)          RB = 0000h (0, 0)
R4 = 002Ah (42, 42)          RC = 0000h (0, 0)
R5 = 0048h (72, 72)          RD = 4005h (16389, 16389)
R6 = 0E98h (3736, 3736)          RE = 00F8h (248, 248)
R7 = 0119h (281, 281)          RF = 0000h (0, 0)

Single Step:

005C:  3A 58     BNZ 0058     (2 bytes)
005E:  8E        GLO RE     (1 bytes)

Halt Address = 005Eh (94)
D = 00h (0, 0)
DF/Carry = 0 (false)
RP = R3 (3) = 005Eh (94)
RX = R2 (2) = 406Dh (16493)
Q Flag = 1 (true)
R0 = 0029h (41, 41)          R8 = 4077h (16503, 16503)
R1 = 0000h (0, 0)          R9 = 4025h (16421, 16421)
R2 = 406Dh (16493, 16493)          RA = 4000h (16384, 16384)
R3 = 005Eh (94, 94)          RB = 0000h (0, 0)
R4 = 002Ah (42, 42)          RC = 0000h (0, 0)
R5 = 0048h (72, 72)          RD = 4005h (16389, 16389)
R6 = 0E98h (3736, 3736)          RE = 00F8h (248, 248)
R7 = 0119h (281, 281)          RF = 0000h (0, 0)

Single Step:

005E:  8E        GLO RE     (1 bytes)
005F:  3A 5A     BNZ 005A     (2 bytes)

Halt Address = 005Fh (95)
D = F8h (248, -8)
DF/Carry = 0 (false)
RP = R3 (3) = 005Fh (95)
RX = R2 (2) = 406Dh (16493)
Q Flag = 1 (true)
R0 = 0029h (41, 41)          R8 = 4077h (16503, 16503)
R1 = 0000h (0, 0)          R9 = 4025h (16421, 16421)
R2 = 406Dh (16493, 16493)          RA = 4000h (16384, 16384)
R3 = 005Fh (95, 95)          RB = 0000h (0, 0)
R4 = 002Ah (42, 42)          RC = 0000h (0, 0)
R5 = 0048h (72, 72)          RD = 4005h (16389, 16389)
R6 = 0E98h (3736, 3736)          RE = 00F8h (248, 248)
R7 = 0119h (281, 281)          RF = 0000h (0, 0)

Single Step:

005F:  3A 5A     BNZ 005A     (2 bytes)
005A:  2E        DEC RE     (1 bytes)

Halt Address = 005Ah (90)
D = F8h (248, -8)
DF/Carry = 0 (false)
RP = R3 (3) = 005Ah (90)
RX = R2 (2) = 406Dh (16493)
Q Flag = 1 (true)
R0 = 0029h (41, 41)          R8 = 4077h (16503, 16503)
R1 = 0000h (0, 0)          R9 = 4025h (16421, 16421)
R2 = 406Dh (16493, 16493)          RA = 4000h (16384, 16384)
R3 = 005Ah (90, 90)          RB = 0000h (0, 0)
R4 = 002Ah (42, 42)          RC = 0000h (0, 0)
R5 = 0048h (72, 72)          RD = 4005h (16389, 16389)
R6 = 0E98h (3736, 3736)          RE = 00F8h (248, 248)
R7 = 0119h (281, 281)          RF = 0000h (0, 0)

Single Step:

005A:  2E        DEC RE     (1 bytes)
005B:  9E        GHI RE     (1 bytes)

Halt Address = 005Bh (91)
D = F8h (248, -8)
DF/Carry = 0 (false)
RP = R3 (3) = 005Bh (91)
RX = R2 (2) = 406Dh (16493)
Q Flag = 1 (true)
R0 = 0029h (41, 41)          R8 = 4077h (16503, 16503)
R1 = 0000h (0, 0)          R9 = 4025h (16421, 16421)
R2 = 406Dh (16493, 16493)          RA = 4000h (16384, 16384)
R3 = 005Bh (91, 91)          RB = 0000h (0, 0)
R4 = 002Ah (42, 42)          RC = 0000h (0, 0)
R5 = 0048h (72, 72)          RD = 4005h (16389, 16389)
R6 = 0E98h (3736, 3736)          RE = 00F7h (247, 247)
R7 = 0119h (281, 281)          RF = 0000h (0, 0)

Single Step:

005B:  9E        GHI RE     (1 bytes)
005C:  3A 58     BNZ 0058     (2 bytes)

Halt Address = 005Ch (92)
D = 00h (0, 0)
DF/Carry = 0 (false)
RP = R3 (3) = 005Ch (92)
RX = R2 (2) = 406Dh (16493)
Q Flag = 1 (true)
R0 = 0029h (41, 41)          R8 = 4077h (16503, 16503)
R1 = 0000h (0, 0)          R9 = 4025h (16421, 16421)
R2 = 406Dh (16493, 16493)          RA = 4000h (16384, 16384)
R3 = 005Ch (92, 92)          RB = 0000h (0, 0)
R4 = 002Ah (42, 42)          RC = 0000h (0, 0)
R5 = 0048h (72, 72)          RD = 4005h (16389, 16389)
R6 = 0E98h (3736, 3736)          RE = 00F7h (247, 247)
R7 = 0119h (281, 281)          RF = 0000h (0, 0)

Single Step:

005C:  3A 58     BNZ 0058     (2 bytes)
005E:  8E        GLO RE     (1 bytes)

Halt Address = 005Eh (94)
D = 00h (0, 0)
DF/Carry = 0 (false)
RP = R3 (3) = 005Eh (94)
RX = R2 (2) = 406Dh (16493)
Q Flag = 1 (true)
R0 = 0029h (41, 41)          R8 = 4077h (16503, 16503)
R1 = 0000h (0, 0)          R9 = 4025h (16421, 16421)
R2 = 406Dh (16493, 16493)          RA = 4000h (16384, 16384)
R3 = 005Eh (94, 94)          RB = 0000h (0, 0)
R4 = 002Ah (42, 42)          RC = 0000h (0, 0)
R5 = 0048h (72, 72)          RD = 4005h (16389, 16389)
R6 = 0E98h (3736, 3736)          RE = 00F7h (247, 247)
R7 = 0119h (281, 281)          RF = 0000h (0, 0)

Single Step:

005E:  8E        GLO RE     (1 bytes)
005F:  3A 5A     BNZ 005A     (2 bytes)

Halt Address = 005Fh (95)
D = F7h (247, -9)
DF/Carry = 0 (false)
RP = R3 (3) = 005Fh (95)
RX = R2 (2) = 406Dh (16493)
Q Flag = 1 (true)
R0 = 0029h (41, 41)          R8 = 4077h (16503, 16503)
R1 = 0000h (0, 0)          R9 = 4025h (16421, 16421)
R2 = 406Dh (16493, 16493)          RA = 4000h (16384, 16384)
R3 = 005Fh (95, 95)          RB = 0000h (0, 0)
R4 = 002Ah (42, 42)          RC = 0000h (0, 0)
R5 = 0048h (72, 72)          RD = 4005h (16389, 16389)
R6 = 0E98h (3736, 3736)          RE = 00F7h (247, 247)
R7 = 0119h (281, 281)          RF = 0000h (0, 0)

Single Step:

005F:  3A 5A     BNZ 005A     (2 bytes)
005A:  2E        DEC RE     (1 bytes)

Halt Address = 005Ah (90)
D = F7h (247, -9)
DF/Carry = 0 (false)
RP = R3 (3) = 005Ah (90)
RX = R2 (2) = 406Dh (16493)
Q Flag = 1 (true)
R0 = 0029h (41, 41)          R8 = 4077h (16503, 16503)
R1 = 0000h (0, 0)          R9 = 4025h (16421, 16421)
R2 = 406Dh (16493, 16493)          RA = 4000h (16384, 16384)
R3 = 005Ah (90, 90)          RB = 0000h (0, 0)
R4 = 002Ah (42, 42)          RC = 0000h (0, 0)
R5 = 0048h (72, 72)          RD = 4005h (16389, 16389)
R6 = 0E98h (3736, 3736)          RE = 00F7h (247, 247)
R7 = 0119h (281, 281)          RF = 0000h (0, 0)



Single Step:

005A:  2E        DEC RE     (1 bytes)
005B:  9E        GHI RE     (1 bytes)

Halt Address = 005Bh (91)
D = F7h (247, -9)
DF/Carry = 0 (false)
RP = R3 (3) = 005Bh (91)
RX = R2 (2) = 406Dh (16493)
Q Flag = 1 (true)
R0 = 0029h (41, 41)          R8 = 4077h (16503, 16503)
R1 = 0000h (0, 0)          R9 = 4025h (16421, 16421)
R2 = 406Dh (16493, 16493)          RA = 4000h (16384, 16384)
R3 = 005Bh (91, 91)          RB = 0000h (0, 0)
R4 = 002Ah (42, 42)          RC = 0000h (0, 0)
R5 = 0048h (72, 72)          RD = 4005h (16389, 16389)
R6 = 0E98h (3736, 3736)          RE = 00F6h (246, 246)
R7 = 0119h (281, 281)          RF = 0000h (0, 0)

Single Step:

005B:  9E        GHI RE     (1 bytes)
005C:  3A 58     BNZ 0058     (2 bytes)

Halt Address = 005Ch (92)
D = 00h (0, 0)
DF/Carry = 0 (false)
RP = R3 (3) = 005Ch (92)
RX = R2 (2) = 406Dh (16493)
Q Flag = 1 (true)
R0 = 0029h (41, 41)          R8 = 4077h (16503, 16503)
R1 = 0000h (0, 0)          R9 = 4025h (16421, 16421)
R2 = 406Dh (16493, 16493)          RA = 4000h (16384, 16384)
R3 = 005Ch (92, 92)          RB = 0000h (0, 0)
R4 = 002Ah (42, 42)          RC = 0000h (0, 0)
R5 = 0048h (72, 72)          RD = 4005h (16389, 16389)
R6 = 0E98h (3736, 3736)          RE = 00F6h (246, 246)
R7 = 0119h (281, 281)          RF = 0000h (0, 0)

Single Step:

005C:  3A 58     BNZ 0058     (2 bytes)
005E:  8E        GLO RE     (1 bytes)

Halt Address = 005Eh (94)
D = 00h (0, 0)
DF/Carry = 0 (false)
RP = R3 (3) = 005Eh (94)
RX = R2 (2) = 406Dh (16493)
Q Flag = 1 (true)
R0 = 0029h (41, 41)          R8 = 4077h (16503, 16503)
R1 = 0000h (0, 0)          R9 = 4025h (16421, 16421)
R2 = 406Dh (16493, 16493)          RA = 4000h (16384, 16384)
R3 = 005Eh (94, 94)          RB = 0000h (0, 0)
R4 = 002Ah (42, 42)          RC = 0000h (0, 0)
R5 = 0048h (72, 72)          RD = 4005h (16389, 16389)
R6 = 0E98h (3736, 3736)          RE = 00F6h (246, 246)
R7 = 0119h (281, 281)          RF = 0000h (0, 0)

Single Step:

005E:  8E        GLO RE     (1 bytes)
005F:  3A 5A     BNZ 005A     (2 bytes)

Halt Address = 005Fh (95)
D = F6h (246, -10)
DF/Carry = 0 (false)
RP = R3 (3) = 005Fh (95)
RX = R2 (2) = 406Dh (16493)
Q Flag = 1 (true)
R0 = 0029h (41, 41)          R8 = 4077h (16503, 16503)
R1 = 0000h (0, 0)          R9 = 4025h (16421, 16421)
R2 = 406Dh (16493, 16493)          RA = 4000h (16384, 16384)
R3 = 005Fh (95, 95)          RB = 0000h (0, 0)
R4 = 002Ah (42, 42)          RC = 0000h (0, 0)
R5 = 0048h (72, 72)          RD = 4005h (16389, 16389)
R6 = 0E98h (3736, 3736)          RE = 00F6h (246, 246)
R7 = 0119h (281, 281)          RF = 0000h (0, 0)

Single Step:

005F:  3A 5A     BNZ 005A     (2 bytes)
005A:  2E        DEC RE     (1 bytes)

Halt Address = 005Ah (90)
D = F6h (246, -10)
DF/Carry = 0 (false)
RP = R3 (3) = 005Ah (90)
RX = R2 (2) = 406Dh (16493)
Q Flag = 1 (true)
R0 = 0029h (41, 41)          R8 = 4077h (16503, 16503)
R1 = 0000h (0, 0)          R9 = 4025h (16421, 16421)
R2 = 406Dh (16493, 16493)          RA = 4000h (16384, 16384)
R3 = 005Ah (90, 90)          RB = 0000h (0, 0)
R4 = 002Ah (42, 42)          RC = 0000h (0, 0)
R5 = 0048h (72, 72)          RD = 4005h (16389, 16389)
R6 = 0E98h (3736, 3736)          RE = 00F6h (246, 246)
R7 = 0119h (281, 281)          RF = 0000h (0, 0)

Single Step:

005A:  2E        DEC RE     (1 bytes)
005B:  9E        GHI RE     (1 bytes)

Halt Address = 005Bh (91)
D = F6h (246, -10)
DF/Carry = 0 (false)
RP = R3 (3) = 005Bh (91)
RX = R2 (2) = 406Dh (16493)
Q Flag = 1 (true)
R0 = 0029h (41, 41)          R8 = 4077h (16503, 16503)
R1 = 0000h (0, 0)          R9 = 4025h (16421, 16421)
R2 = 406Dh (16493, 16493)          RA = 4000h (16384, 16384)
R3 = 005Bh (91, 91)          RB = 0000h (0, 0)
R4 = 002Ah (42, 42)          RC = 0000h (0, 0)
R5 = 0048h (72, 72)          RD = 4005h (16389, 16389)
R6 = 0E98h (3736, 3736)          RE = 00F5h (245, 245)
R7 = 0119h (281, 281)          RF = 0000h (0, 0)

Single Step:

005B:  9E        GHI RE     (1 bytes)
005C:  3A 58     BNZ 0058     (2 bytes)

Halt Address = 005Ch (92)
D = 00h (0, 0)
DF/Carry = 0 (false)
RP = R3 (3) = 005Ch (92)
RX = R2 (2) = 406Dh (16493)
Q Flag = 1 (true)
R0 = 0029h (41, 41)          R8 = 4077h (16503, 16503)
R1 = 0000h (0, 0)          R9 = 4025h (16421, 16421)
R2 = 406Dh (16493, 16493)          RA = 4000h (16384, 16384)
R3 = 005Ch (92, 92)          RB = 0000h (0, 0)
R4 = 002Ah (42, 42)          RC = 0000h (0, 0)
R5 = 0048h (72, 72)          RD = 4005h (16389, 16389)
R6 = 0E98h (3736, 3736)          RE = 00F5h (245, 245)
R7 = 0119h (281, 281)          RF = 0000h (0, 0)

Single Step:

005C:  3A 58     BNZ 0058     (2 bytes)
005E:  8E        GLO RE     (1 bytes)

Halt Address = 005Eh (94)
D = 00h (0, 0)
DF/Carry = 0 (false)
RP = R3 (3) = 005Eh (94)
RX = R2 (2) = 406Dh (16493)
Q Flag = 1 (true)
R0 = 0029h (41, 41)          R8 = 4077h (16503, 16503)
R1 = 0000h (0, 0)          R9 = 4025h (16421, 16421)
R2 = 406Dh (16493, 16493)          RA = 4000h (16384, 16384)
R3 = 005Eh (94, 94)          RB = 0000h (0, 0)
R4 = 002Ah (42, 42)          RC = 0000h (0, 0)
R5 = 0048h (72, 72)          RD = 4005h (16389, 16389)
R6 = 0E98h (3736, 3736)          RE = 00F5h (245, 245)
R7 = 0119h (281, 281)          RF = 0000h (0, 0)

Single Step:

005E:  8E        GLO RE     (1 bytes)
005F:  3A 5A     BNZ 005A     (2 bytes)

Halt Address = 005Fh (95)
D = F5h (245, -11)
DF/Carry = 0 (false)
RP = R3 (3) = 005Fh (95)
RX = R2 (2) = 406Dh (16493)
Q Flag = 1 (true)
R0 = 0029h (41, 41)          R8 = 4077h (16503, 16503)
R1 = 0000h (0, 0)          R9 = 4025h (16421, 16421)
R2 = 406Dh (16493, 16493)          RA = 4000h (16384, 16384)
R3 = 005Fh (95, 95)          RB = 0000h (0, 0)
R4 = 002Ah (42, 42)          RC = 0000h (0, 0)
R5 = 0048h (72, 72)          RD = 4005h (16389, 16389)
R6 = 0E98h (3736, 3736)          RE = 00F5h (245, 245)
R7 = 0119h (281, 281)          RF = 0000h (0, 0)

Single Step:

005F:  3A 5A     BNZ 005A     (2 bytes)
005A:  2E        DEC RE     (1 bytes)

Halt Address = 005Ah (90)
D = F5h (245, -11)
DF/Carry = 0 (false)
RP = R3 (3) = 005Ah (90)
RX = R2 (2) = 406Dh (16493)
Q Flag = 1 (true)
R0 = 0029h (41, 41)          R8 = 4077h (16503, 16503)
R1 = 0000h (0, 0)          R9 = 4025h (16421, 16421)
R2 = 406Dh (16493, 16493)          RA = 4000h (16384, 16384)
R3 = 005Ah (90, 90)          RB = 0000h (0, 0)
R4 = 002Ah (42, 42)          RC = 0000h (0, 0)
R5 = 0048h (72, 72)          RD = 4005h (16389, 16389)
R6 = 0E98h (3736, 3736)          RE = 00F5h (245, 245)
R7 = 0119h (281, 281)          RF = 0000h (0, 0)


Single Step:

005A:  2E        DEC RE     (1 bytes)
005B:  9E        GHI RE     (1 bytes)

Halt Address = 005Bh (91)
D = F5h (245, -11)
DF/Carry = 0 (false)
RP = R3 (3) = 005Bh (91)
RX = R2 (2) = 406Dh (16493)
Q Flag = 1 (true)
R0 = 0029h (41, 41)          R8 = 4077h (16503, 16503)
R1 = 0000h (0, 0)          R9 = 4025h (16421, 16421)
R2 = 406Dh (16493, 16493)          RA = 4000h (16384, 16384)
R3 = 005Bh (91, 91)          RB = 0000h (0, 0)
R4 = 002Ah (42, 42)          RC = 0000h (0, 0)
R5 = 0048h (72, 72)          RD = 4005h (16389, 16389)
R6 = 0E98h (3736, 3736)          RE = 00F4h (244, 244)
R7 = 0119h (281, 281)          RF = 0000h (0, 0)

Single Step:

005B:  9E        GHI RE     (1 bytes)
005C:  3A 58     BNZ 0058     (2 bytes)

Halt Address = 005Ch (92)
D = 00h (0, 0)
DF/Carry = 0 (false)
RP = R3 (3) = 005Ch (92)
RX = R2 (2) = 406Dh (16493)
Q Flag = 1 (true)
R0 = 0029h (41, 41)          R8 = 4077h (16503, 16503)
R1 = 0000h (0, 0)          R9 = 4025h (16421, 16421)
R2 = 406Dh (16493, 16493)          RA = 4000h (16384, 16384)
R3 = 005Ch (92, 92)          RB = 0000h (0, 0)
R4 = 002Ah (42, 42)          RC = 0000h (0, 0)
R5 = 0048h (72, 72)          RD = 4005h (16389, 16389)
R6 = 0E98h (3736, 3736)          RE = 00F4h (244, 244)
R7 = 0119h (281, 281)          RF = 0000h (0, 0)

Single Step:

005C:  3A 58     BNZ 0058     (2 bytes)
005E:  8E        GLO RE     (1 bytes)

Halt Address = 005Eh (94)
D = 00h (0, 0)
DF/Carry = 0 (false)
RP = R3 (3) = 005Eh (94)
RX = R2 (2) = 406Dh (16493)
Q Flag = 1 (true)
R0 = 0029h (41, 41)          R8 = 4077h (16503, 16503)
R1 = 0000h (0, 0)          R9 = 4025h (16421, 16421)
R2 = 406Dh (16493, 16493)          RA = 4000h (16384, 16384)
R3 = 005Eh (94, 94)          RB = 0000h (0, 0)
R4 = 002Ah (42, 42)          RC = 0000h (0, 0)
R5 = 0048h (72, 72)          RD = 4005h (16389, 16389)
R6 = 0E98h (3736, 3736)          RE = 00F4h (244, 244)
R7 = 0119h (281, 281)          RF = 0000h (0, 0)

Single Step:

005E:  8E        GLO RE     (1 bytes)
005F:  3A 5A     BNZ 005A     (2 bytes)

Halt Address = 005Fh (95)
D = F4h (244, -12)
DF/Carry = 0 (false)
RP = R3 (3) = 005Fh (95)
RX = R2 (2) = 406Dh (16493)
Q Flag = 1 (true)
R0 = 0029h (41, 41)          R8 = 4077h (16503, 16503)
R1 = 0000h (0, 0)          R9 = 4025h (16421, 16421)
R2 = 406Dh (16493, 16493)          RA = 4000h (16384, 16384)
R3 = 005Fh (95, 95)          RB = 0000h (0, 0)
R4 = 002Ah (42, 42)          RC = 0000h (0, 0)
R5 = 0048h (72, 72)          RD = 4005h (16389, 16389)
R6 = 0E98h (3736, 3736)          RE = 00F4h (244, 244)
R7 = 0119h (281, 281)          RF = 0000h (0, 0)

Single Step:

005F:  3A 5A     BNZ 005A     (2 bytes)
005A:  2E        DEC RE     (1 bytes)

Halt Address = 005Ah (90)
D = F4h (244, -12)
DF/Carry = 0 (false)
RP = R3 (3) = 005Ah (90)
RX = R2 (2) = 406Dh (16493)
Q Flag = 1 (true)
R0 = 0029h (41, 41)          R8 = 4077h (16503, 16503)
R1 = 0000h (0, 0)          R9 = 4025h (16421, 16421)
R2 = 406Dh (16493, 16493)          RA = 4000h (16384, 16384)
R3 = 005Ah (90, 90)          RB = 0000h (0, 0)
R4 = 002Ah (42, 42)          RC = 0000h (0, 0)
R5 = 0048h (72, 72)          RD = 4005h (16389, 16389)
R6 = 0E98h (3736, 3736)          RE = 00F4h (244, 244)
R7 = 0119h (281, 281)          RF = 0000h (0, 0)

Single Step:

005A:  2E        DEC RE     (1 bytes)
005B:  9E        GHI RE     (1 bytes)

Halt Address = 005Bh (91)
D = F4h (244, -12)
DF/Carry = 0 (false)
RP = R3 (3) = 005Bh (91)
RX = R2 (2) = 406Dh (16493)
Q Flag = 1 (true)
R0 = 0029h (41, 41)          R8 = 4077h (16503, 16503)
R1 = 0000h (0, 0)          R9 = 4025h (16421, 16421)
R2 = 406Dh (16493, 16493)          RA = 4000h (16384, 16384)
R3 = 005Bh (91, 91)          RB = 0000h (0, 0)
R4 = 002Ah (42, 42)          RC = 0000h (0, 0)
R5 = 0048h (72, 72)          RD = 4005h (16389, 16389)
R6 = 0E98h (3736, 3736)          RE = 00F3h (243, 243)
R7 = 0119h (281, 281)          RF = 0000h (0, 0)

Single Step:

005B:  9E        GHI RE     (1 bytes)
005C:  3A 58     BNZ 0058     (2 bytes)

Halt Address = 005Ch (92)
D = 00h (0, 0)
DF/Carry = 0 (false)
RP = R3 (3) = 005Ch (92)
RX = R2 (2) = 406Dh (16493)
Q Flag = 1 (true)
R0 = 0029h (41, 41)          R8 = 4077h (16503, 16503)
R1 = 0000h (0, 0)          R9 = 4025h (16421, 16421)
R2 = 406Dh (16493, 16493)          RA = 4000h (16384, 16384)
R3 = 005Ch (92, 92)          RB = 0000h (0, 0)
R4 = 002Ah (42, 42)          RC = 0000h (0, 0)
R5 = 0048h (72, 72)          RD = 4005h (16389, 16389)
R6 = 0E98h (3736, 3736)          RE = 00F3h (243, 243)
R7 = 0119h (281, 281)          RF = 0000h (0, 0)

Single Step:

005C:  3A 58     BNZ 0058     (2 bytes)
005E:  8E        GLO RE     (1 bytes)

Halt Address = 005Eh (94)
D = 00h (0, 0)
DF/Carry = 0 (false)
RP = R3 (3) = 005Eh (94)
RX = R2 (2) = 406Dh (16493)
Q Flag = 1 (true)
R0 = 0029h (41, 41)          R8 = 4077h (16503, 16503)
R1 = 0000h (0, 0)          R9 = 4025h (16421, 16421)
R2 = 406Dh (16493, 16493)          RA = 4000h (16384, 16384)
R3 = 005Eh (94, 94)          RB = 0000h (0, 0)
R4 = 002Ah (42, 42)          RC = 0000h (0, 0)
R5 = 0048h (72, 72)          RD = 4005h (16389, 16389)
R6 = 0E98h (3736, 3736)          RE = 00F3h (243, 243)
R7 = 0119h (281, 281)          RF = 0000h (0, 0)

Single Step:

005E:  8E        GLO RE     (1 bytes)
005F:  3A 5A     BNZ 005A     (2 bytes)

Halt Address = 005Fh (95)
D = F3h (243, -13)
DF/Carry = 0 (false)
RP = R3 (3) = 005Fh (95)
RX = R2 (2) = 406Dh (16493)
Q Flag = 1 (true)
R0 = 0029h (41, 41)          R8 = 4077h (16503, 16503)
R1 = 0000h (0, 0)          R9 = 4025h (16421, 16421)
R2 = 406Dh (16493, 16493)          RA = 4000h (16384, 16384)
R3 = 005Fh (95, 95)          RB = 0000h (0, 0)
R4 = 002Ah (42, 42)          RC = 0000h (0, 0)
R5 = 0048h (72, 72)          RD = 4005h (16389, 16389)
R6 = 0E98h (3736, 3736)          RE = 00F3h (243, 243)
R7 = 0119h (281, 281)          RF = 0000h (0, 0)

Single Step:

005F:  3A 5A     BNZ 005A     (2 bytes)
005A:  2E        DEC RE     (1 bytes)

Halt Address = 005Ah (90)
D = F3h (243, -13)
DF/Carry = 0 (false)
RP = R3 (3) = 005Ah (90)
RX = R2 (2) = 406Dh (16493)
Q Flag = 1 (true)
R0 = 0029h (41, 41)          R8 = 4077h (16503, 16503)
R1 = 0000h (0, 0)          R9 = 4025h (16421, 16421)
R2 = 406Dh (16493, 16493)          RA = 4000h (16384, 16384)
R3 = 005Ah (90, 90)          RB = 0000h (0, 0)
R4 = 002Ah (42, 42)          RC = 0000h (0, 0)
R5 = 0048h (72, 72)          RD = 4005h (16389, 16389)
R6 = 0E98h (3736, 3736)          RE = 00F3h (243, 243)
R7 = 0119h (281, 281)          RF = 0000h (0, 0)


Single Step:

005A:  2E        DEC RE     (1 bytes)
005B:  9E        GHI RE     (1 bytes)

Halt Address = 005Bh (91)
D = F3h (243, -13)
DF/Carry = 0 (false)
RP = R3 (3) = 005Bh (91)
RX = R2 (2) = 406Dh (16493)
Q Flag = 1 (true)
R0 = 0029h (41, 41)          R8 = 4077h (16503, 16503)
R1 = 0000h (0, 0)          R9 = 4025h (16421, 16421)
R2 = 406Dh (16493, 16493)          RA = 4000h (16384, 16384)
R3 = 005Bh (91, 91)          RB = 0000h (0, 0)
R4 = 002Ah (42, 42)          RC = 0000h (0, 0)
R5 = 0048h (72, 72)          RD = 4005h (16389, 16389)
R6 = 0E98h (3736, 3736)          RE = 00F2h (242, 242)
R7 = 0119h (281, 281)          RF = 0000h (0, 0)

Single Step:

005B:  9E        GHI RE     (1 bytes)
005C:  3A 58     BNZ 0058     (2 bytes)

Halt Address = 005Ch (92)
D = 00h (0, 0)
DF/Carry = 0 (false)
RP = R3 (3) = 005Ch (92)
RX = R2 (2) = 406Dh (16493)
Q Flag = 1 (true)
R0 = 0029h (41, 41)          R8 = 4077h (16503, 16503)
R1 = 0000h (0, 0)          R9 = 4025h (16421, 16421)
R2 = 406Dh (16493, 16493)          RA = 4000h (16384, 16384)
R3 = 005Ch (92, 92)          RB = 0000h (0, 0)
R4 = 002Ah (42, 42)          RC = 0000h (0, 0)
R5 = 0048h (72, 72)          RD = 4005h (16389, 16389)
R6 = 0E98h (3736, 3736)          RE = 00F2h (242, 242)
R7 = 0119h (281, 281)          RF = 0000h (0, 0)

Single Step:

005C:  3A 58     BNZ 0058     (2 bytes)
005E:  8E        GLO RE     (1 bytes)

Halt Address = 005Eh (94)
D = 00h (0, 0)
DF/Carry = 0 (false)
RP = R3 (3) = 005Eh (94)
RX = R2 (2) = 406Dh (16493)
Q Flag = 1 (true)
R0 = 0029h (41, 41)          R8 = 4077h (16503, 16503)
R1 = 0000h (0, 0)          R9 = 4025h (16421, 16421)
R2 = 406Dh (16493, 16493)          RA = 4000h (16384, 16384)
R3 = 005Eh (94, 94)          RB = 0000h (0, 0)
R4 = 002Ah (42, 42)          RC = 0000h (0, 0)
R5 = 0048h (72, 72)          RD = 4005h (16389, 16389)
R6 = 0E98h (3736, 3736)          RE = 00F2h (242, 242)
R7 = 0119h (281, 281)          RF = 0000h (0, 0)

Single Step:

005E:  8E        GLO RE     (1 bytes)
005F:  3A 5A     BNZ 005A     (2 bytes)

Halt Address = 005Fh (95)
D = F2h (242, -14)
DF/Carry = 0 (false)
RP = R3 (3) = 005Fh (95)
RX = R2 (2) = 406Dh (16493)
Q Flag = 1 (true)
R0 = 0029h (41, 41)          R8 = 4077h (16503, 16503)
R1 = 0000h (0, 0)          R9 = 4025h (16421, 16421)
R2 = 406Dh (16493, 16493)          RA = 4000h (16384, 16384)
R3 = 005Fh (95, 95)          RB = 0000h (0, 0)
R4 = 002Ah (42, 42)          RC = 0000h (0, 0)
R5 = 0048h (72, 72)          RD = 4005h (16389, 16389)
R6 = 0E98h (3736, 3736)          RE = 00F2h (242, 242)
R7 = 0119h (281, 281)          RF = 0000h (0, 0)

Single Step:

005F:  3A 5A     BNZ 005A     (2 bytes)
005A:  2E        DEC RE     (1 bytes)

Halt Address = 005Ah (90)
D = F2h (242, -14)
DF/Carry = 0 (false)
RP = R3 (3) = 005Ah (90)
RX = R2 (2) = 406Dh (16493)
Q Flag = 1 (true)
R0 = 0029h (41, 41)          R8 = 4077h (16503, 16503)
R1 = 0000h (0, 0)          R9 = 4025h (16421, 16421)
R2 = 406Dh (16493, 16493)          RA = 4000h (16384, 16384)
R3 = 005Ah (90, 90)          RB = 0000h (0, 0)
R4 = 002Ah (42, 42)          RC = 0000h (0, 0)
R5 = 0048h (72, 72)          RD = 4005h (16389, 16389)
R6 = 0E98h (3736, 3736)          RE = 00F2h (242, 242)
R7 = 0119h (281, 281)          RF = 0000h (0, 0)

Single Step:

005A:  2E        DEC RE     (1 bytes)
005B:  9E        GHI RE     (1 bytes)

Halt Address = 005Bh (91)
D = F2h (242, -14)
DF/Carry = 0 (false)
RP = R3 (3) = 005Bh (91)
RX = R2 (2) = 406Dh (16493)
Q Flag = 1 (true)
R0 = 0029h (41, 41)          R8 = 4077h (16503, 16503)
R1 = 0000h (0, 0)          R9 = 4025h (16421, 16421)
R2 = 406Dh (16493, 16493)          RA = 4000h (16384, 16384)
R3 = 005Bh (91, 91)          RB = 0000h (0, 0)
R4 = 002Ah (42, 42)          RC = 0000h (0, 0)
R5 = 0048h (72, 72)          RD = 4005h (16389, 16389)
R6 = 0E98h (3736, 3736)          RE = 00F1h (241, 241)
R7 = 0119h (281, 281)          RF = 0000h (0, 0)

Single Step:

005B:  9E        GHI RE     (1 bytes)
005C:  3A 58     BNZ 0058     (2 bytes)

Halt Address = 005Ch (92)
D = 00h (0, 0)
DF/Carry = 0 (false)
RP = R3 (3) = 005Ch (92)
RX = R2 (2) = 406Dh (16493)
Q Flag = 1 (true)
R0 = 0029h (41, 41)          R8 = 4077h (16503, 16503)
R1 = 0000h (0, 0)          R9 = 4025h (16421, 16421)
R2 = 406Dh (16493, 16493)          RA = 4000h (16384, 16384)
R3 = 005Ch (92, 92)          RB = 0000h (0, 0)
R4 = 002Ah (42, 42)          RC = 0000h (0, 0)
R5 = 0048h (72, 72)          RD = 4005h (16389, 16389)
R6 = 0E98h (3736, 3736)          RE = 00F1h (241, 241)
R7 = 0119h (281, 281)          RF = 0000h (0, 0)

Single Step:

005C:  3A 58     BNZ 0058     (2 bytes)
005E:  8E        GLO RE     (1 bytes)

Halt Address = 005Eh (94)
D = 00h (0, 0)
DF/Carry = 0 (false)
RP = R3 (3) = 005Eh (94)
RX = R2 (2) = 406Dh (16493)
Q Flag = 1 (true)
R0 = 0029h (41, 41)          R8 = 4077h (16503, 16503)
R1 = 0000h (0, 0)          R9 = 4025h (16421, 16421)
R2 = 406Dh (16493, 16493)          RA = 4000h (16384, 16384)
R3 = 005Eh (94, 94)          RB = 0000h (0, 0)
R4 = 002Ah (42, 42)          RC = 0000h (0, 0)
R5 = 0048h (72, 72)          RD = 4005h (16389, 16389)
R6 = 0E98h (3736, 3736)          RE = 00F1h (241, 241)
R7 = 0119h (281, 281)          RF = 0000h (0, 0)

Single Step:

005E:  8E        GLO RE     (1 bytes)
005F:  3A 5A     BNZ 005A     (2 bytes)

Halt Address = 005Fh (95)
D = F1h (241, -15)
DF/Carry = 0 (false)
RP = R3 (3) = 005Fh (95)
RX = R2 (2) = 406Dh (16493)
Q Flag = 1 (true)
R0 = 0029h (41, 41)          R8 = 4077h (16503, 16503)
R1 = 0000h (0, 0)          R9 = 4025h (16421, 16421)
R2 = 406Dh (16493, 16493)          RA = 4000h (16384, 16384)
R3 = 005Fh (95, 95)          RB = 0000h (0, 0)
R4 = 002Ah (42, 42)          RC = 0000h (0, 0)
R5 = 0048h (72, 72)          RD = 4005h (16389, 16389)
R6 = 0E98h (3736, 3736)          RE = 00F1h (241, 241)
R7 = 0119h (281, 281)          RF = 0000h (0, 0)

Single Step:

005F:  3A 5A     BNZ 005A     (2 bytes)
005A:  2E        DEC RE     (1 bytes)

Halt Address = 005Ah (90)
D = F1h (241, -15)
DF/Carry = 0 (false)
RP = R3 (3) = 005Ah (90)
RX = R2 (2) = 406Dh (16493)
Q Flag = 1 (true)
R0 = 0029h (41, 41)          R8 = 4077h (16503, 16503)
R1 = 0000h (0, 0)          R9 = 4025h (16421, 16421)
R2 = 406Dh (16493, 16493)          RA = 4000h (16384, 16384)
R3 = 005Ah (90, 90)          RB = 0000h (0, 0)
R4 = 002Ah (42, 42)          RC = 0000h (0, 0)
R5 = 0048h (72, 72)          RD = 4005h (16389, 16389)
R6 = 0E98h (3736, 3736)          RE = 00F1h (241, 241)
R7 = 0119h (281, 281)          RF = 0000h (0, 0)


Single Step:

005A:  2E        DEC RE     (1 bytes)
005B:  9E        GHI RE     (1 bytes)

Halt Address = 005Bh (91)
D = F1h (241, -15)
DF/Carry = 0 (false)
RP = R3 (3) = 005Bh (91)
RX = R2 (2) = 406Dh (16493)
Q Flag = 1 (true)
R0 = 0029h (41, 41)          R8 = 4077h (16503, 16503)
R1 = 0000h (0, 0)          R9 = 4025h (16421, 16421)
R2 = 406Dh (16493, 16493)          RA = 4000h (16384, 16384)
R3 = 005Bh (91, 91)          RB = 0000h (0, 0)
R4 = 002Ah (42, 42)          RC = 0000h (0, 0)
R5 = 0048h (72, 72)          RD = 4005h (16389, 16389)
R6 = 0E98h (3736, 3736)          RE = 00F0h (240, 240)
R7 = 0119h (281, 281)          RF = 0000h (0, 0)

Single Step:

005B:  9E        GHI RE     (1 bytes)
005C:  3A 58     BNZ 0058     (2 bytes)

Halt Address = 005Ch (92)
D = 00h (0, 0)
DF/Carry = 0 (false)
RP = R3 (3) = 005Ch (92)
RX = R2 (2) = 406Dh (16493)
Q Flag = 1 (true)
R0 = 0029h (41, 41)          R8 = 4077h (16503, 16503)
R1 = 0000h (0, 0)          R9 = 4025h (16421, 16421)
R2 = 406Dh (16493, 16493)          RA = 4000h (16384, 16384)
R3 = 005Ch (92, 92)          RB = 0000h (0, 0)
R4 = 002Ah (42, 42)          RC = 0000h (0, 0)
R5 = 0048h (72, 72)          RD = 4005h (16389, 16389)
R6 = 0E98h (3736, 3736)          RE = 00F0h (240, 240)
R7 = 0119h (281, 281)          RF = 0000h (0, 0)

Single Step:

005C:  3A 58     BNZ 0058     (2 bytes)
005E:  8E        GLO RE     (1 bytes)

Halt Address = 005Eh (94)
D = 00h (0, 0)
DF/Carry = 0 (false)
RP = R3 (3) = 005Eh (94)
RX = R2 (2) = 406Dh (16493)
Q Flag = 1 (true)
R0 = 0029h (41, 41)          R8 = 4077h (16503, 16503)
R1 = 0000h (0, 0)          R9 = 4025h (16421, 16421)
R2 = 406Dh (16493, 16493)          RA = 4000h (16384, 16384)
R3 = 005Eh (94, 94)          RB = 0000h (0, 0)
R4 = 002Ah (42, 42)          RC = 0000h (0, 0)
R5 = 0048h (72, 72)          RD = 4005h (16389, 16389)
R6 = 0E98h (3736, 3736)          RE = 00F0h (240, 240)
R7 = 0119h (281, 281)          RF = 0000h (0, 0)

Single Step:

005E:  8E        GLO RE     (1 bytes)
005F:  3A 5A     BNZ 005A     (2 bytes)

Halt Address = 005Fh (95)
D = F0h (240, -16)
DF/Carry = 0 (false)
RP = R3 (3) = 005Fh (95)
RX = R2 (2) = 406Dh (16493)
Q Flag = 1 (true)
R0 = 0029h (41, 41)          R8 = 4077h (16503, 16503)
R1 = 0000h (0, 0)          R9 = 4025h (16421, 16421)
R2 = 406Dh (16493, 16493)          RA = 4000h (16384, 16384)
R3 = 005Fh (95, 95)          RB = 0000h (0, 0)
R4 = 002Ah (42, 42)          RC = 0000h (0, 0)
R5 = 0048h (72, 72)          RD = 4005h (16389, 16389)
R6 = 0E98h (3736, 3736)          RE = 00F0h (240, 240)
R7 = 0119h (281, 281)          RF = 0000h (0, 0)

Single Step:

005F:  3A 5A     BNZ 005A     (2 bytes)
005A:  2E        DEC RE     (1 bytes)

Halt Address = 005Ah (90)
D = F0h (240, -16)
DF/Carry = 0 (false)
RP = R3 (3) = 005Ah (90)
RX = R2 (2) = 406Dh (16493)
Q Flag = 1 (true)
R0 = 0029h (41, 41)          R8 = 4077h (16503, 16503)
R1 = 0000h (0, 0)          R9 = 4025h (16421, 16421)
R2 = 406Dh (16493, 16493)          RA = 4000h (16384, 16384)
R3 = 005Ah (90, 90)          RB = 0000h (0, 0)
R4 = 002Ah (42, 42)          RC = 0000h (0, 0)
R5 = 0048h (72, 72)          RD = 4005h (16389, 16389)
R6 = 0E98h (3736, 3736)          RE = 00F0h (240, 240)
R7 = 0119h (281, 281)          RF = 0000h (0, 0)

Single Step:

005A:  2E        DEC RE     (1 bytes)
005B:  9E        GHI RE     (1 bytes)

Halt Address = 005Bh (91)
D = F0h (240, -16)
DF/Carry = 0 (false)
RP = R3 (3) = 005Bh (91)
RX = R2 (2) = 406Dh (16493)
Q Flag = 1 (true)
R0 = 0029h (41, 41)          R8 = 4077h (16503, 16503)
R1 = 0000h (0, 0)          R9 = 4025h (16421, 16421)
R2 = 406Dh (16493, 16493)          RA = 4000h (16384, 16384)
R3 = 005Bh (91, 91)          RB = 0000h (0, 0)
R4 = 002Ah (42, 42)          RC = 0000h (0, 0)
R5 = 0048h (72, 72)          RD = 4005h (16389, 16389)
R6 = 0E98h (3736, 3736)          RE = 00EFh (239, 239)
R7 = 0119h (281, 281)          RF = 0000h (0, 0)

Single Step:

005B:  9E        GHI RE     (1 bytes)
005C:  3A 58     BNZ 0058     (2 bytes)

Halt Address = 005Ch (92)
D = 00h (0, 0)
DF/Carry = 0 (false)
RP = R3 (3) = 005Ch (92)
RX = R2 (2) = 406Dh (16493)
Q Flag = 1 (true)
R0 = 0029h (41, 41)          R8 = 4077h (16503, 16503)
R1 = 0000h (0, 0)          R9 = 4025h (16421, 16421)
R2 = 406Dh (16493, 16493)          RA = 4000h (16384, 16384)
R3 = 005Ch (92, 92)          RB = 0000h (0, 0)
R4 = 002Ah (42, 42)          RC = 0000h (0, 0)
R5 = 0048h (72, 72)          RD = 4005h (16389, 16389)
R6 = 0E98h (3736, 3736)          RE = 00EFh (239, 239)
R7 = 0119h (281, 281)          RF = 0000h (0, 0)

Single Step:

005C:  3A 58     BNZ 0058     (2 bytes)
005E:  8E        GLO RE     (1 bytes)

Halt Address = 005Eh (94)
D = 00h (0, 0)
DF/Carry = 0 (false)
RP = R3 (3) = 005Eh (94)
RX = R2 (2) = 406Dh (16493)
Q Flag = 1 (true)
R0 = 0029h (41, 41)          R8 = 4077h (16503, 16503)
R1 = 0000h (0, 0)          R9 = 4025h (16421, 16421)
R2 = 406Dh (16493, 16493)          RA = 4000h (16384, 16384)
R3 = 005Eh (94, 94)          RB = 0000h (0, 0)
R4 = 002Ah (42, 42)          RC = 0000h (0, 0)
R5 = 0048h (72, 72)          RD = 4005h (16389, 16389)
R6 = 0E98h (3736, 3736)          RE = 00EFh (239, 239)
R7 = 0119h (281, 281)          RF = 0000h (0, 0)

Single Step:

005E:  8E        GLO RE     (1 bytes)
005F:  3A 5A     BNZ 005A     (2 bytes)

Halt Address = 005Fh (95)
D = EFh (239, -17)
DF/Carry = 0 (false)
RP = R3 (3) = 005Fh (95)
RX = R2 (2) = 406Dh (16493)
Q Flag = 1 (true)
R0 = 0029h (41, 41)          R8 = 4077h (16503, 16503)
R1 = 0000h (0, 0)          R9 = 4025h (16421, 16421)
R2 = 406Dh (16493, 16493)          RA = 4000h (16384, 16384)
R3 = 005Fh (95, 95)          RB = 0000h (0, 0)
R4 = 002Ah (42, 42)          RC = 0000h (0, 0)
R5 = 0048h (72, 72)          RD = 4005h (16389, 16389)
R6 = 0E98h (3736, 3736)          RE = 00EFh (239, 239)
R7 = 0119h (281, 281)          RF = 0000h (0, 0)

Single Step:

005F:  3A 5A     BNZ 005A     (2 bytes)
005A:  2E        DEC RE     (1 bytes)

Halt Address = 005Ah (90)
D = EFh (239, -17)
DF/Carry = 0 (false)
RP = R3 (3) = 005Ah (90)
RX = R2 (2) = 406Dh (16493)
Q Flag = 1 (true)
R0 = 0029h (41, 41)          R8 = 4077h (16503, 16503)
R1 = 0000h (0, 0)          R9 = 4025h (16421, 16421)
R2 = 406Dh (16493, 16493)          RA = 4000h (16384, 16384)
R3 = 005Ah (90, 90)          RB = 0000h (0, 0)
R4 = 002Ah (42, 42)          RC = 0000h (0, 0)
R5 = 0048h (72, 72)          RD = 4005h (16389, 16389)
R6 = 0E98h (3736, 3736)          RE = 00EFh (239, 239)
R7 = 0119h (281, 281)          RF = 0000h (0, 0)


Single Step:

005A:  2E        DEC RE     (1 bytes)
005B:  9E        GHI RE     (1 bytes)

Halt Address = 005Bh (91)
D = EFh (239, -17)
DF/Carry = 0 (false)
RP = R3 (3) = 005Bh (91)
RX = R2 (2) = 406Dh (16493)
Q Flag = 1 (true)
R0 = 0029h (41, 41)          R8 = 4077h (16503, 16503)
R1 = 0000h (0, 0)          R9 = 4025h (16421, 16421)
R2 = 406Dh (16493, 16493)          RA = 4000h (16384, 16384)
R3 = 005Bh (91, 91)          RB = 0000h (0, 0)
R4 = 002Ah (42, 42)          RC = 0000h (0, 0)
R5 = 0048h (72, 72)          RD = 4005h (16389, 16389)
R6 = 0E98h (3736, 3736)          RE = 00EEh (238, 238)
R7 = 0119h (281, 281)          RF = 0000h (0, 0)

Single Step:

005B:  9E        GHI RE     (1 bytes)
005C:  3A 58     BNZ 0058     (2 bytes)

Halt Address = 005Ch (92)
D = 00h (0, 0)
DF/Carry = 0 (false)
RP = R3 (3) = 005Ch (92)
RX = R2 (2) = 406Dh (16493)
Q Flag = 1 (true)
R0 = 0029h (41, 41)          R8 = 4077h (16503, 16503)
R1 = 0000h (0, 0)          R9 = 4025h (16421, 16421)
R2 = 406Dh (16493, 16493)          RA = 4000h (16384, 16384)
R3 = 005Ch (92, 92)          RB = 0000h (0, 0)
R4 = 002Ah (42, 42)          RC = 0000h (0, 0)
R5 = 0048h (72, 72)          RD = 4005h (16389, 16389)
R6 = 0E98h (3736, 3736)          RE = 00EEh (238, 238)
R7 = 0119h (281, 281)          RF = 0000h (0, 0)

Single Step:

005C:  3A 58     BNZ 0058     (2 bytes)
005E:  8E        GLO RE     (1 bytes)

Halt Address = 005Eh (94)
D = 00h (0, 0)
DF/Carry = 0 (false)
RP = R3 (3) = 005Eh (94)
RX = R2 (2) = 406Dh (16493)
Q Flag = 1 (true)
R0 = 0029h (41, 41)          R8 = 4077h (16503, 16503)
R1 = 0000h (0, 0)          R9 = 4025h (16421, 16421)
R2 = 406Dh (16493, 16493)          RA = 4000h (16384, 16384)
R3 = 005Eh (94, 94)          RB = 0000h (0, 0)
R4 = 002Ah (42, 42)          RC = 0000h (0, 0)
R5 = 0048h (72, 72)          RD = 4005h (16389, 16389)
R6 = 0E98h (3736, 3736)          RE = 00EEh (238, 238)
R7 = 0119h (281, 281)          RF = 0000h (0, 0)

Single Step:

005E:  8E        GLO RE     (1 bytes)
005F:  3A 5A     BNZ 005A     (2 bytes)

Halt Address = 005Fh (95)
D = EEh (238, -18)
DF/Carry = 0 (false)
RP = R3 (3) = 005Fh (95)
RX = R2 (2) = 406Dh (16493)
Q Flag = 1 (true)
R0 = 0029h (41, 41)          R8 = 4077h (16503, 16503)
R1 = 0000h (0, 0)          R9 = 4025h (16421, 16421)
R2 = 406Dh (16493, 16493)          RA = 4000h (16384, 16384)
R3 = 005Fh (95, 95)          RB = 0000h (0, 0)
R4 = 002Ah (42, 42)          RC = 0000h (0, 0)
R5 = 0048h (72, 72)          RD = 4005h (16389, 16389)
R6 = 0E98h (3736, 3736)          RE = 00EEh (238, 238)
R7 = 0119h (281, 281)          RF = 0000h (0, 0)

Single Step:

005F:  3A 5A     BNZ 005A     (2 bytes)
005A:  2E        DEC RE     (1 bytes)

Halt Address = 005Ah (90)
D = EEh (238, -18)
DF/Carry = 0 (false)
RP = R3 (3) = 005Ah (90)
RX = R2 (2) = 406Dh (16493)
Q Flag = 1 (true)
R0 = 0029h (41, 41)          R8 = 4077h (16503, 16503)
R1 = 0000h (0, 0)          R9 = 4025h (16421, 16421)
R2 = 406Dh (16493, 16493)          RA = 4000h (16384, 16384)
R3 = 005Ah (90, 90)          RB = 0000h (0, 0)
R4 = 002Ah (42, 42)          RC = 0000h (0, 0)
R5 = 0048h (72, 72)          RD = 4005h (16389, 16389)
R6 = 0E98h (3736, 3736)          RE = 00EEh (238, 238)
R7 = 0119h (281, 281)          RF = 0000h (0, 0)

Single Step:

005A:  2E        DEC RE     (1 bytes)
005B:  9E        GHI RE     (1 bytes)

Halt Address = 005Bh (91)
D = EEh (238, -18)
DF/Carry = 0 (false)
RP = R3 (3) = 005Bh (91)
RX = R2 (2) = 406Dh (16493)
Q Flag = 1 (true)
R0 = 0029h (41, 41)          R8 = 4077h (16503, 16503)
R1 = 0000h (0, 0)          R9 = 4025h (16421, 16421)
R2 = 406Dh (16493, 16493)          RA = 4000h (16384, 16384)
R3 = 005Bh (91, 91)          RB = 0000h (0, 0)
R4 = 002Ah (42, 42)          RC = 0000h (0, 0)
R5 = 0048h (72, 72)          RD = 4005h (16389, 16389)
R6 = 0E98h (3736, 3736)          RE = 00EDh (237, 237)
R7 = 0119h (281, 281)          RF = 0000h (0, 0)

Single Step:

005B:  9E        GHI RE     (1 bytes)
005C:  3A 58     BNZ 0058     (2 bytes)

Halt Address = 005Ch (92)
D = 00h (0, 0)
DF/Carry = 0 (false)
RP = R3 (3) = 005Ch (92)
RX = R2 (2) = 406Dh (16493)
Q Flag = 1 (true)
R0 = 0029h (41, 41)          R8 = 4077h (16503, 16503)
R1 = 0000h (0, 0)          R9 = 4025h (16421, 16421)
R2 = 406Dh (16493, 16493)          RA = 4000h (16384, 16384)
R3 = 005Ch (92, 92)          RB = 0000h (0, 0)
R4 = 002Ah (42, 42)          RC = 0000h (0, 0)
R5 = 0048h (72, 72)          RD = 4005h (16389, 16389)
R6 = 0E98h (3736, 3736)          RE = 00EDh (237, 237)
R7 = 0119h (281, 281)          RF = 0000h (0, 0)

Single Step:

005C:  3A 58     BNZ 0058     (2 bytes)
005E:  8E        GLO RE     (1 bytes)

Halt Address = 005Eh (94)
D = 00h (0, 0)
DF/Carry = 0 (false)
RP = R3 (3) = 005Eh (94)
RX = R2 (2) = 406Dh (16493)
Q Flag = 1 (true)
R0 = 0029h (41, 41)          R8 = 4077h (16503, 16503)
R1 = 0000h (0, 0)          R9 = 4025h (16421, 16421)
R2 = 406Dh (16493, 16493)          RA = 4000h (16384, 16384)
R3 = 005Eh (94, 94)          RB = 0000h (0, 0)
R4 = 002Ah (42, 42)          RC = 0000h (0, 0)
R5 = 0048h (72, 72)          RD = 4005h (16389, 16389)
R6 = 0E98h (3736, 3736)          RE = 00EDh (237, 237)
R7 = 0119h (281, 281)          RF = 0000h (0, 0)

Single Step:

005E:  8E        GLO RE     (1 bytes)
005F:  3A 5A     BNZ 005A     (2 bytes)

Halt Address = 005Fh (95)
D = EDh (237, -19)
DF/Carry = 0 (false)
RP = R3 (3) = 005Fh (95)
RX = R2 (2) = 406Dh (16493)
Q Flag = 1 (true)
R0 = 0029h (41, 41)          R8 = 4077h (16503, 16503)
R1 = 0000h (0, 0)          R9 = 4025h (16421, 16421)
R2 = 406Dh (16493, 16493)          RA = 4000h (16384, 16384)
R3 = 005Fh (95, 95)          RB = 0000h (0, 0)
R4 = 002Ah (42, 42)          RC = 0000h (0, 0)
R5 = 0048h (72, 72)          RD = 4005h (16389, 16389)
R6 = 0E98h (3736, 3736)          RE = 00EDh (237, 237)
R7 = 0119h (281, 281)          RF = 0000h (0, 0)

Single Step:

005F:  3A 5A     BNZ 005A     (2 bytes)
005A:  2E        DEC RE     (1 bytes)

Halt Address = 005Ah (90)
D = EDh (237, -19)
DF/Carry = 0 (false)
RP = R3 (3) = 005Ah (90)
RX = R2 (2) = 406Dh (16493)
Q Flag = 1 (true)
R0 = 0029h (41, 41)          R8 = 4077h (16503, 16503)
R1 = 0000h (0, 0)          R9 = 4025h (16421, 16421)
R2 = 406Dh (16493, 16493)          RA = 4000h (16384, 16384)
R3 = 005Ah (90, 90)          RB = 0000h (0, 0)
R4 = 002Ah (42, 42)          RC = 0000h (0, 0)
R5 = 0048h (72, 72)          RD = 4005h (16389, 16389)
R6 = 0E98h (3736, 3736)          RE = 00EDh (237, 237)
R7 = 0119h (281, 281)          RF = 0000h (0, 0)


Single Step:

005A:  2E        DEC RE     (1 bytes)
005B:  9E        GHI RE     (1 bytes)

Halt Address = 005Bh (91)
D = EDh (237, -19)
DF/Carry = 0 (false)
RP = R3 (3) = 005Bh (91)
RX = R2 (2) = 406Dh (16493)
Q Flag = 1 (true)
R0 = 0029h (41, 41)          R8 = 4077h (16503, 16503)
R1 = 0000h (0, 0)          R9 = 4025h (16421, 16421)
R2 = 406Dh (16493, 16493)          RA = 4000h (16384, 16384)
R3 = 005Bh (91, 91)          RB = 0000h (0, 0)
R4 = 002Ah (42, 42)          RC = 0000h (0, 0)
R5 = 0048h (72, 72)          RD = 4005h (16389, 16389)
R6 = 0E98h (3736, 3736)          RE = 00ECh (236, 236)
R7 = 0119h (281, 281)          RF = 0000h (0, 0)

Single Step:

005B:  9E        GHI RE     (1 bytes)
005C:  3A 58     BNZ 0058     (2 bytes)

Halt Address = 005Ch (92)
D = 00h (0, 0)
DF/Carry = 0 (false)
RP = R3 (3) = 005Ch (92)
RX = R2 (2) = 406Dh (16493)
Q Flag = 1 (true)
R0 = 0029h (41, 41)          R8 = 4077h (16503, 16503)
R1 = 0000h (0, 0)          R9 = 4025h (16421, 16421)
R2 = 406Dh (16493, 16493)          RA = 4000h (16384, 16384)
R3 = 005Ch (92, 92)          RB = 0000h (0, 0)
R4 = 002Ah (42, 42)          RC = 0000h (0, 0)
R5 = 0048h (72, 72)          RD = 4005h (16389, 16389)
R6 = 0E98h (3736, 3736)          RE = 00ECh (236, 236)
R7 = 0119h (281, 281)          RF = 0000h (0, 0)

Single Step:

005C:  3A 58     BNZ 0058     (2 bytes)
005E:  8E        GLO RE     (1 bytes)

Halt Address = 005Eh (94)
D = 00h (0, 0)
DF/Carry = 0 (false)
RP = R3 (3) = 005Eh (94)
RX = R2 (2) = 406Dh (16493)
Q Flag = 1 (true)
R0 = 0029h (41, 41)          R8 = 4077h (16503, 16503)
R1 = 0000h (0, 0)          R9 = 4025h (16421, 16421)
R2 = 406Dh (16493, 16493)          RA = 4000h (16384, 16384)
R3 = 005Eh (94, 94)          RB = 0000h (0, 0)
R4 = 002Ah (42, 42)          RC = 0000h (0, 0)
R5 = 0048h (72, 72)          RD = 4005h (16389, 16389)
R6 = 0E98h (3736, 3736)          RE = 00ECh (236, 236)
R7 = 0119h (281, 281)          RF = 0000h (0, 0)

Single Step:

005E:  8E        GLO RE     (1 bytes)
005F:  3A 5A     BNZ 005A     (2 bytes)

Halt Address = 005Fh (95)
D = ECh (236, -20)
DF/Carry = 0 (false)
RP = R3 (3) = 005Fh (95)
RX = R2 (2) = 406Dh (16493)
Q Flag = 1 (true)
R0 = 0029h (41, 41)          R8 = 4077h (16503, 16503)
R1 = 0000h (0, 0)          R9 = 4025h (16421, 16421)
R2 = 406Dh (16493, 16493)          RA = 4000h (16384, 16384)
R3 = 005Fh (95, 95)          RB = 0000h (0, 0)
R4 = 002Ah (42, 42)          RC = 0000h (0, 0)
R5 = 0048h (72, 72)          RD = 4005h (16389, 16389)
R6 = 0E98h (3736, 3736)          RE = 00ECh (236, 236)
R7 = 0119h (281, 281)          RF = 0000h (0, 0)

Single Step:

005F:  3A 5A     BNZ 005A     (2 bytes)
005A:  2E        DEC RE     (1 bytes)

Halt Address = 005Ah (90)
D = ECh (236, -20)
DF/Carry = 0 (false)
RP = R3 (3) = 005Ah (90)
RX = R2 (2) = 406Dh (16493)
Q Flag = 1 (true)
R0 = 0029h (41, 41)          R8 = 4077h (16503, 16503)
R1 = 0000h (0, 0)          R9 = 4025h (16421, 16421)
R2 = 406Dh (16493, 16493)          RA = 4000h (16384, 16384)
R3 = 005Ah (90, 90)          RB = 0000h (0, 0)
R4 = 002Ah (42, 42)          RC = 0000h (0, 0)
R5 = 0048h (72, 72)          RD = 4005h (16389, 16389)
R6 = 0E98h (3736, 3736)          RE = 00ECh (236, 236)
R7 = 0119h (281, 281)          RF = 0000h (0, 0)

Single Step:

005A:  2E        DEC RE     (1 bytes)
005B:  9E        GHI RE     (1 bytes)

Halt Address = 005Bh (91)
D = ECh (236, -20)
DF/Carry = 0 (false)
RP = R3 (3) = 005Bh (91)
RX = R2 (2) = 406Dh (16493)
Q Flag = 1 (true)
R0 = 0029h (41, 41)          R8 = 4077h (16503, 16503)
R1 = 0000h (0, 0)          R9 = 4025h (16421, 16421)
R2 = 406Dh (16493, 16493)          RA = 4000h (16384, 16384)
R3 = 005Bh (91, 91)          RB = 0000h (0, 0)
R4 = 002Ah (42, 42)          RC = 0000h (0, 0)
R5 = 0048h (72, 72)          RD = 4005h (16389, 16389)
R6 = 0E98h (3736, 3736)          RE = 00EBh (235, 235)
R7 = 0119h (281, 281)          RF = 0000h (0, 0)

Single Step:

005B:  9E        GHI RE     (1 bytes)
005C:  3A 58     BNZ 0058     (2 bytes)

Halt Address = 005Ch (92)
D = 00h (0, 0)
DF/Carry = 0 (false)
RP = R3 (3) = 005Ch (92)
RX = R2 (2) = 406Dh (16493)
Q Flag = 1 (true)
R0 = 0029h (41, 41)          R8 = 4077h (16503, 16503)
R1 = 0000h (0, 0)          R9 = 4025h (16421, 16421)
R2 = 406Dh (16493, 16493)          RA = 4000h (16384, 16384)
R3 = 005Ch (92, 92)          RB = 0000h (0, 0)
R4 = 002Ah (42, 42)          RC = 0000h (0, 0)
R5 = 0048h (72, 72)          RD = 4005h (16389, 16389)
R6 = 0E98h (3736, 3736)          RE = 00EBh (235, 235)
R7 = 0119h (281, 281)          RF = 0000h (0, 0)

Single Step:

005C:  3A 58     BNZ 0058     (2 bytes)
005E:  8E        GLO RE     (1 bytes)

Halt Address = 005Eh (94)
D = 00h (0, 0)
DF/Carry = 0 (false)
RP = R3 (3) = 005Eh (94)
RX = R2 (2) = 406Dh (16493)
Q Flag = 1 (true)
R0 = 0029h (41, 41)          R8 = 4077h (16503, 16503)
R1 = 0000h (0, 0)          R9 = 4025h (16421, 16421)
R2 = 406Dh (16493, 16493)          RA = 4000h (16384, 16384)
R3 = 005Eh (94, 94)          RB = 0000h (0, 0)
R4 = 002Ah (42, 42)          RC = 0000h (0, 0)
R5 = 0048h (72, 72)          RD = 4005h (16389, 16389)
R6 = 0E98h (3736, 3736)          RE = 00EBh (235, 235)
R7 = 0119h (281, 281)          RF = 0000h (0, 0)

Single Step:

005E:  8E        GLO RE     (1 bytes)
005F:  3A 5A     BNZ 005A     (2 bytes)

Halt Address = 005Fh (95)
D = EBh (235, -21)
DF/Carry = 0 (false)
RP = R3 (3) = 005Fh (95)
RX = R2 (2) = 406Dh (16493)
Q Flag = 1 (true)
R0 = 0029h (41, 41)          R8 = 4077h (16503, 16503)
R1 = 0000h (0, 0)          R9 = 4025h (16421, 16421)
R2 = 406Dh (16493, 16493)          RA = 4000h (16384, 16384)
R3 = 005Fh (95, 95)          RB = 0000h (0, 0)
R4 = 002Ah (42, 42)          RC = 0000h (0, 0)
R5 = 0048h (72, 72)          RD = 4005h (16389, 16389)
R6 = 0E98h (3736, 3736)          RE = 00EBh (235, 235)
R7 = 0119h (281, 281)          RF = 0000h (0, 0)

Single Step:

005F:  3A 5A     BNZ 005A     (2 bytes)
005A:  2E        DEC RE     (1 bytes)

Halt Address = 005Ah (90)
D = EBh (235, -21)
DF/Carry = 0 (false)
RP = R3 (3) = 005Ah (90)
RX = R2 (2) = 406Dh (16493)
Q Flag = 1 (true)
R0 = 0029h (41, 41)          R8 = 4077h (16503, 16503)
R1 = 0000h (0, 0)          R9 = 4025h (16421, 16421)
R2 = 406Dh (16493, 16493)          RA = 4000h (16384, 16384)
R3 = 005Ah (90, 90)          RB = 0000h (0, 0)
R4 = 002Ah (42, 42)          RC = 0000h (0, 0)
R5 = 0048h (72, 72)          RD = 4005h (16389, 16389)
R6 = 0E98h (3736, 3736)          RE = 00EBh (235, 235)
R7 = 0119h (281, 281)          RF = 0000h (0, 0)


Single Step:

005A:  2E        DEC RE     (1 bytes)
005B:  9E        GHI RE     (1 bytes)

Halt Address = 005Bh (91)
D = EBh (235, -21)
DF/Carry = 0 (false)
RP = R3 (3) = 005Bh (91)
RX = R2 (2) = 406Dh (16493)
Q Flag = 1 (true)
R0 = 0029h (41, 41)          R8 = 4077h (16503, 16503)
R1 = 0000h (0, 0)          R9 = 4025h (16421, 16421)
R2 = 406Dh (16493, 16493)          RA = 4000h (16384, 16384)
R3 = 005Bh (91, 91)          RB = 0000h (0, 0)
R4 = 002Ah (42, 42)          RC = 0000h (0, 0)
R5 = 0048h (72, 72)          RD = 4005h (16389, 16389)
R6 = 0E98h (3736, 3736)          RE = 00EAh (234, 234)
R7 = 0119h (281, 281)          RF = 0000h (0, 0)

Single Step:

005B:  9E        GHI RE     (1 bytes)
005C:  3A 58     BNZ 0058     (2 bytes)

Halt Address = 005Ch (92)
D = 00h (0, 0)
DF/Carry = 0 (false)
RP = R3 (3) = 005Ch (92)
RX = R2 (2) = 406Dh (16493)
Q Flag = 1 (true)
R0 = 0029h (41, 41)          R8 = 4077h (16503, 16503)
R1 = 0000h (0, 0)          R9 = 4025h (16421, 16421)
R2 = 406Dh (16493, 16493)          RA = 4000h (16384, 16384)
R3 = 005Ch (92, 92)          RB = 0000h (0, 0)
R4 = 002Ah (42, 42)          RC = 0000h (0, 0)
R5 = 0048h (72, 72)          RD = 4005h (16389, 16389)
R6 = 0E98h (3736, 3736)          RE = 00EAh (234, 234)
R7 = 0119h (281, 281)          RF = 0000h (0, 0)

Single Step:

005C:  3A 58     BNZ 0058     (2 bytes)
005E:  8E        GLO RE     (1 bytes)

Halt Address = 005Eh (94)
D = 00h (0, 0)
DF/Carry = 0 (false)
RP = R3 (3) = 005Eh (94)
RX = R2 (2) = 406Dh (16493)
Q Flag = 1 (true)
R0 = 0029h (41, 41)          R8 = 4077h (16503, 16503)
R1 = 0000h (0, 0)          R9 = 4025h (16421, 16421)
R2 = 406Dh (16493, 16493)          RA = 4000h (16384, 16384)
R3 = 005Eh (94, 94)          RB = 0000h (0, 0)
R4 = 002Ah (42, 42)          RC = 0000h (0, 0)
R5 = 0048h (72, 72)          RD = 4005h (16389, 16389)
R6 = 0E98h (3736, 3736)          RE = 00EAh (234, 234)
R7 = 0119h (281, 281)          RF = 0000h (0, 0)

Single Step:

005E:  8E        GLO RE     (1 bytes)
005F:  3A 5A     BNZ 005A     (2 bytes)

Halt Address = 005Fh (95)
D = EAh (234, -22)
DF/Carry = 0 (false)
RP = R3 (3) = 005Fh (95)
RX = R2 (2) = 406Dh (16493)
Q Flag = 1 (true)
R0 = 0029h (41, 41)          R8 = 4077h (16503, 16503)
R1 = 0000h (0, 0)          R9 = 4025h (16421, 16421)
R2 = 406Dh (16493, 16493)          RA = 4000h (16384, 16384)
R3 = 005Fh (95, 95)          RB = 0000h (0, 0)
R4 = 002Ah (42, 42)          RC = 0000h (0, 0)
R5 = 0048h (72, 72)          RD = 4005h (16389, 16389)
R6 = 0E98h (3736, 3736)          RE = 00EAh (234, 234)
R7 = 0119h (281, 281)          RF = 0000h (0, 0)

Single Step:

005F:  3A 5A     BNZ 005A     (2 bytes)
005A:  2E        DEC RE     (1 bytes)

Halt Address = 005Ah (90)
D = EAh (234, -22)
DF/Carry = 0 (false)
RP = R3 (3) = 005Ah (90)
RX = R2 (2) = 406Dh (16493)
Q Flag = 1 (true)
R0 = 0029h (41, 41)          R8 = 4077h (16503, 16503)
R1 = 0000h (0, 0)          R9 = 4025h (16421, 16421)
R2 = 406Dh (16493, 16493)          RA = 4000h (16384, 16384)
R3 = 005Ah (90, 90)          RB = 0000h (0, 0)
R4 = 002Ah (42, 42)          RC = 0000h (0, 0)
R5 = 0048h (72, 72)          RD = 4005h (16389, 16389)
R6 = 0E98h (3736, 3736)          RE = 00EAh (234, 234)
R7 = 0119h (281, 281)          RF = 0000h (0, 0)

Single Step:

005A:  2E        DEC RE     (1 bytes)
005B:  9E        GHI RE     (1 bytes)

Halt Address = 005Bh (91)
D = EAh (234, -22)
DF/Carry = 0 (false)
RP = R3 (3) = 005Bh (91)
RX = R2 (2) = 406Dh (16493)
Q Flag = 1 (true)
R0 = 0029h (41, 41)          R8 = 4077h (16503, 16503)
R1 = 0000h (0, 0)          R9 = 4025h (16421, 16421)
R2 = 406Dh (16493, 16493)          RA = 4000h (16384, 16384)
R3 = 005Bh (91, 91)          RB = 0000h (0, 0)
R4 = 002Ah (42, 42)          RC = 0000h (0, 0)
R5 = 0048h (72, 72)          RD = 4005h (16389, 16389)
R6 = 0E98h (3736, 3736)          RE = 00E9h (233, 233)
R7 = 0119h (281, 281)          RF = 0000h (0, 0)

Single Step:

005B:  9E        GHI RE     (1 bytes)
005C:  3A 58     BNZ 0058     (2 bytes)

Halt Address = 005Ch (92)
D = 00h (0, 0)
DF/Carry = 0 (false)
RP = R3 (3) = 005Ch (92)
RX = R2 (2) = 406Dh (16493)
Q Flag = 1 (true)
R0 = 0029h (41, 41)          R8 = 4077h (16503, 16503)
R1 = 0000h (0, 0)          R9 = 4025h (16421, 16421)
R2 = 406Dh (16493, 16493)          RA = 4000h (16384, 16384)
R3 = 005Ch (92, 92)          RB = 0000h (0, 0)
R4 = 002Ah (42, 42)          RC = 0000h (0, 0)
R5 = 0048h (72, 72)          RD = 4005h (16389, 16389)
R6 = 0E98h (3736, 3736)          RE = 00E9h (233, 233)
R7 = 0119h (281, 281)          RF = 0000h (0, 0)

Single Step:

005C:  3A 58     BNZ 0058     (2 bytes)
005E:  8E        GLO RE     (1 bytes)

Halt Address = 005Eh (94)
D = 00h (0, 0)
DF/Carry = 0 (false)
RP = R3 (3) = 005Eh (94)
RX = R2 (2) = 406Dh (16493)
Q Flag = 1 (true)
R0 = 0029h (41, 41)          R8 = 4077h (16503, 16503)
R1 = 0000h (0, 0)          R9 = 4025h (16421, 16421)
R2 = 406Dh (16493, 16493)          RA = 4000h (16384, 16384)
R3 = 005Eh (94, 94)          RB = 0000h (0, 0)
R4 = 002Ah (42, 42)          RC = 0000h (0, 0)
R5 = 0048h (72, 72)          RD = 4005h (16389, 16389)
R6 = 0E98h (3736, 3736)          RE = 00E9h (233, 233)
R7 = 0119h (281, 281)          RF = 0000h (0, 0)

Single Step:

005E:  8E        GLO RE     (1 bytes)
005F:  3A 5A     BNZ 005A     (2 bytes)

Halt Address = 005Fh (95)
D = E9h (233, -23)
DF/Carry = 0 (false)
RP = R3 (3) = 005Fh (95)
RX = R2 (2) = 406Dh (16493)
Q Flag = 1 (true)
R0 = 0029h (41, 41)          R8 = 4077h (16503, 16503)
R1 = 0000h (0, 0)          R9 = 4025h (16421, 16421)
R2 = 406Dh (16493, 16493)          RA = 4000h (16384, 16384)
R3 = 005Fh (95, 95)          RB = 0000h (0, 0)
R4 = 002Ah (42, 42)          RC = 0000h (0, 0)
R5 = 0048h (72, 72)          RD = 4005h (16389, 16389)
R6 = 0E98h (3736, 3736)          RE = 00E9h (233, 233)
R7 = 0119h (281, 281)          RF = 0000h (0, 0)

Single Step:

005F:  3A 5A     BNZ 005A     (2 bytes)
005A:  2E        DEC RE     (1 bytes)

Halt Address = 005Ah (90)
D = E9h (233, -23)
DF/Carry = 0 (false)
RP = R3 (3) = 005Ah (90)
RX = R2 (2) = 406Dh (16493)
Q Flag = 1 (true)
R0 = 0029h (41, 41)          R8 = 4077h (16503, 16503)
R1 = 0000h (0, 0)          R9 = 4025h (16421, 16421)
R2 = 406Dh (16493, 16493)          RA = 4000h (16384, 16384)
R3 = 005Ah (90, 90)          RB = 0000h (0, 0)
R4 = 002Ah (42, 42)          RC = 0000h (0, 0)
R5 = 0048h (72, 72)          RD = 4005h (16389, 16389)
R6 = 0E98h (3736, 3736)          RE = 00E9h (233, 233)
R7 = 0119h (281, 281)          RF = 0000h (0, 0)



Single Step:

005A:  2E        DEC RE     (1 bytes)
005B:  9E        GHI RE     (1 bytes)

Halt Address = 005Bh (91)
D = E9h (233, -23)
DF/Carry = 0 (false)
RP = R3 (3) = 005Bh (91)
RX = R2 (2) = 406Dh (16493)
Q Flag = 1 (true)
R0 = 0029h (41, 41)          R8 = 4077h (16503, 16503)
R1 = 0000h (0, 0)          R9 = 4025h (16421, 16421)
R2 = 406Dh (16493, 16493)          RA = 4000h (16384, 16384)
R3 = 005Bh (91, 91)          RB = 0000h (0, 0)
R4 = 002Ah (42, 42)          RC = 0000h (0, 0)
R5 = 0048h (72, 72)          RD = 4005h (16389, 16389)
R6 = 0E98h (3736, 3736)          RE = 00E8h (232, 232)
R7 = 0119h (281, 281)          RF = 0000h (0, 0)

Single Step:

005B:  9E        GHI RE     (1 bytes)
005C:  3A 58     BNZ 0058     (2 bytes)

Halt Address = 005Ch (92)
D = 00h (0, 0)
DF/Carry = 0 (false)
RP = R3 (3) = 005Ch (92)
RX = R2 (2) = 406Dh (16493)
Q Flag = 1 (true)
R0 = 0029h (41, 41)          R8 = 4077h (16503, 16503)
R1 = 0000h (0, 0)          R9 = 4025h (16421, 16421)
R2 = 406Dh (16493, 16493)          RA = 4000h (16384, 16384)
R3 = 005Ch (92, 92)          RB = 0000h (0, 0)
R4 = 002Ah (42, 42)          RC = 0000h (0, 0)
R5 = 0048h (72, 72)          RD = 4005h (16389, 16389)
R6 = 0E98h (3736, 3736)          RE = 00E8h (232, 232)
R7 = 0119h (281, 281)          RF = 0000h (0, 0)

Single Step:

005C:  3A 58     BNZ 0058     (2 bytes)
005E:  8E        GLO RE     (1 bytes)

Halt Address = 005Eh (94)
D = 00h (0, 0)
DF/Carry = 0 (false)
RP = R3 (3) = 005Eh (94)
RX = R2 (2) = 406Dh (16493)
Q Flag = 1 (true)
R0 = 0029h (41, 41)          R8 = 4077h (16503, 16503)
R1 = 0000h (0, 0)          R9 = 4025h (16421, 16421)
R2 = 406Dh (16493, 16493)          RA = 4000h (16384, 16384)
R3 = 005Eh (94, 94)          RB = 0000h (0, 0)
R4 = 002Ah (42, 42)          RC = 0000h (0, 0)
R5 = 0048h (72, 72)          RD = 4005h (16389, 16389)
R6 = 0E98h (3736, 3736)          RE = 00E8h (232, 232)
R7 = 0119h (281, 281)          RF = 0000h (0, 0)

Single Step:

005E:  8E        GLO RE     (1 bytes)
005F:  3A 5A     BNZ 005A     (2 bytes)

Halt Address = 005Fh (95)
D = E8h (232, -24)
DF/Carry = 0 (false)
RP = R3 (3) = 005Fh (95)
RX = R2 (2) = 406Dh (16493)
Q Flag = 1 (true)
R0 = 0029h (41, 41)          R8 = 4077h (16503, 16503)
R1 = 0000h (0, 0)          R9 = 4025h (16421, 16421)
R2 = 406Dh (16493, 16493)          RA = 4000h (16384, 16384)
R3 = 005Fh (95, 95)          RB = 0000h (0, 0)
R4 = 002Ah (42, 42)          RC = 0000h (0, 0)
R5 = 0048h (72, 72)          RD = 4005h (16389, 16389)
R6 = 0E98h (3736, 3736)          RE = 00E8h (232, 232)
R7 = 0119h (281, 281)          RF = 0000h (0, 0)

Single Step:

005F:  3A 5A     BNZ 005A     (2 bytes)
005A:  2E        DEC RE     (1 bytes)

Halt Address = 005Ah (90)
D = E8h (232, -24)
DF/Carry = 0 (false)
RP = R3 (3) = 005Ah (90)
RX = R2 (2) = 406Dh (16493)
Q Flag = 1 (true)
R0 = 0029h (41, 41)          R8 = 4077h (16503, 16503)
R1 = 0000h (0, 0)          R9 = 4025h (16421, 16421)
R2 = 406Dh (16493, 16493)          RA = 4000h (16384, 16384)
R3 = 005Ah (90, 90)          RB = 0000h (0, 0)
R4 = 002Ah (42, 42)          RC = 0000h (0, 0)
R5 = 0048h (72, 72)          RD = 4005h (16389, 16389)
R6 = 0E98h (3736, 3736)          RE = 00E8h (232, 232)
R7 = 0119h (281, 281)          RF = 0000h (0, 0)

Single Step:

005A:  2E        DEC RE     (1 bytes)
005B:  9E        GHI RE     (1 bytes)

Halt Address = 005Bh (91)
D = E8h (232, -24)
DF/Carry = 0 (false)
RP = R3 (3) = 005Bh (91)
RX = R2 (2) = 406Dh (16493)
Q Flag = 1 (true)
R0 = 0029h (41, 41)          R8 = 4077h (16503, 16503)
R1 = 0000h (0, 0)          R9 = 4025h (16421, 16421)
R2 = 406Dh (16493, 16493)          RA = 4000h (16384, 16384)
R3 = 005Bh (91, 91)          RB = 0000h (0, 0)
R4 = 002Ah (42, 42)          RC = 0000h (0, 0)
R5 = 0048h (72, 72)          RD = 4005h (16389, 16389)
R6 = 0E98h (3736, 3736)          RE = 00E7h (231, 231)
R7 = 0119h (281, 281)          RF = 0000h (0, 0)

Single Step:

005B:  9E        GHI RE     (1 bytes)
005C:  3A 58     BNZ 0058     (2 bytes)

Halt Address = 005Ch (92)
D = 00h (0, 0)
DF/Carry = 0 (false)
RP = R3 (3) = 005Ch (92)
RX = R2 (2) = 406Dh (16493)
Q Flag = 1 (true)
R0 = 0029h (41, 41)          R8 = 4077h (16503, 16503)
R1 = 0000h (0, 0)          R9 = 4025h (16421, 16421)
R2 = 406Dh (16493, 16493)          RA = 4000h (16384, 16384)
R3 = 005Ch (92, 92)          RB = 0000h (0, 0)
R4 = 002Ah (42, 42)          RC = 0000h (0, 0)
R5 = 0048h (72, 72)          RD = 4005h (16389, 16389)
R6 = 0E98h (3736, 3736)          RE = 00E7h (231, 231)
R7 = 0119h (281, 281)          RF = 0000h (0, 0)

Single Step:

005C:  3A 58     BNZ 0058     (2 bytes)
005E:  8E        GLO RE     (1 bytes)

Halt Address = 005Eh (94)
D = 00h (0, 0)
DF/Carry = 0 (false)
RP = R3 (3) = 005Eh (94)
RX = R2 (2) = 406Dh (16493)
Q Flag = 1 (true)
R0 = 0029h (41, 41)          R8 = 4077h (16503, 16503)
R1 = 0000h (0, 0)          R9 = 4025h (16421, 16421)
R2 = 406Dh (16493, 16493)          RA = 4000h (16384, 16384)
R3 = 005Eh (94, 94)          RB = 0000h (0, 0)
R4 = 002Ah (42, 42)          RC = 0000h (0, 0)
R5 = 0048h (72, 72)          RD = 4005h (16389, 16389)
R6 = 0E98h (3736, 3736)          RE = 00E7h (231, 231)
R7 = 0119h (281, 281)          RF = 0000h (0, 0)

Single Step:

005E:  8E        GLO RE     (1 bytes)
005F:  3A 5A     BNZ 005A     (2 bytes)

Halt Address = 005Fh (95)
D = E7h (231, -25)
DF/Carry = 0 (false)
RP = R3 (3) = 005Fh (95)
RX = R2 (2) = 406Dh (16493)
Q Flag = 1 (true)
R0 = 0029h (41, 41)          R8 = 4077h (16503, 16503)
R1 = 0000h (0, 0)          R9 = 4025h (16421, 16421)
R2 = 406Dh (16493, 16493)          RA = 4000h (16384, 16384)
R3 = 005Fh (95, 95)          RB = 0000h (0, 0)
R4 = 002Ah (42, 42)          RC = 0000h (0, 0)
R5 = 0048h (72, 72)          RD = 4005h (16389, 16389)
R6 = 0E98h (3736, 3736)          RE = 00E7h (231, 231)
R7 = 0119h (281, 281)          RF = 0000h (0, 0)

Single Step:

005F:  3A 5A     BNZ 005A     (2 bytes)
005A:  2E        DEC RE     (1 bytes)

Halt Address = 005Ah (90)
D = E7h (231, -25)
DF/Carry = 0 (false)
RP = R3 (3) = 005Ah (90)
RX = R2 (2) = 406Dh (16493)
Q Flag = 1 (true)
R0 = 0029h (41, 41)          R8 = 4077h (16503, 16503)
R1 = 0000h (0, 0)          R9 = 4025h (16421, 16421)
R2 = 406Dh (16493, 16493)          RA = 4000h (16384, 16384)
R3 = 005Ah (90, 90)          RB = 0000h (0, 0)
R4 = 002Ah (42, 42)          RC = 0000h (0, 0)
R5 = 0048h (72, 72)          RD = 4005h (16389, 16389)
R6 = 0E98h (3736, 3736)          RE = 00E7h (231, 231)
R7 = 0119h (281, 281)          RF = 0000h (0, 0)



